     1                                  
     2                                  
     3                                  %include "../EBNF/EBNFix.asm"
     4                              <1> ;*******************************************************************************
     5                              <1> ; EBNFix shares pointers, variables, subroutine names with grammars and
     6                              <1> ; applications to link with the Kernel.
     7                              <1> ; This file should be included in a new grammar definition, eg. 
     8                              <1> ; a new compiler, interpreter or convertor.
     9                              <1> 
    10                              <1> ; Have after the GLOBAL declarations in the App the line: 
    11                              <1> ;	"%include "../EBNF/EBNFix.asm"
    12                              <1> ; When in reversed order double definition errors will result.
    13                              <1> 
    14                              <1> ;*******************************************************************************
    15                              <1> ;				MEMORY MAP
    16                              <1> ;*******************************************************************************
    17                              <1> ; for server
    18                              <1> sMemL	equ	0x4000000	; 64MB total space 
    19                              <1> sMemBL	equ	0x100		; 256B base length
    20                              <1> sMemSL	equ	0x800		;   2k stack length
    21                              <1> 
    22                              <1> ; for each thread
    23                              <1> tMemL	equ	0x0800000	;  8MB total space
    24                              <1> tMemBL	equ	0x100		; 256B base length
    25                              <1> tMemSL	equ	0x800		;   2k stack length
    26                              <1> 
    27                              <1> ;*******************************************************************************
    28                              <1> ;				CONTEXT PARAMETERS
    29                              <1> ;*******************************************************************************
    30                              <1> ; in registers
    31                              <1> %define rPOk		rcx	; flag 1=match 0=no match during parse
    32                              <1> %define rInPnt		r8	; moving pointer in sIn to continue parse 
    33                              <1> %define rInEnd		r9	; flag if no further parse input available
    34                              <1> %define rOutPnt		r10	; moving pointer to append in sOut
    35                              <1> %define rLastIn		r11	; last term that matched in parse 
    36                              <1> %define rLastInLen	r12	; length of LastIn
    37                              <1> %define rFactCnt	r13	; index during factoring
    38                              <1> %define rInEndFlg	r14	; end of Input message
    39                              <1> %define rInChrCnt	r15	; character counter during text parsing
    40                              <1> 
    41                              <1> ; memory available per thread (each thread has privat rbp area)
    42                              <1> %define mMemEnd		rbp		; end of thread Mem
    43                              <1> %define mMem0		qword [rbp-  8]	; start of Mem
    44                              <1> 
    45                              <1> ; for EBNF parser in thread memory
    46                              <1> %define In0		[rbp- 16]	; start of In
    47                              <1> %define InPntMax	[rbp- 24]	; Pnt furthest parsed before mismatch
    48                              <1> %define InPntOld	[rbp- 32]	; Used for display parsed terminal
    49                              <1> %define InPrev		[rbp- 40]	; 
    50                              <1> %define InPrevLen	[rbp- 48]	; 
    51                              <1> %define OutEnd		[rbp- 56]	; end of out going msg
    52                              <1> %define Out0		[rbp- 64]	; start of out going msg
    53                              <1> %define OutBufEnd	[rbp- 72]	; end of space avail for outgoing msg
    54                              <1> %define LblNxtNew	[rbp- 80]	;
    55                              <1> 
    56                              <1> %define SockFD		[rbp- 88]	; one thread max one Socket (for now)
    57                              <1> %define MasterSockFD	[rbp- 96]	; socket to whch thread msgs are swtched
    58                              <1> 
    59                              <1> 
    60                              <1> %define Tmp0		qword [rbp-104]	; general purpose var, ok for threading
    61                              <1> %define Tmp1		qword [rbp-112]
    62                              <1> %define Tmp2		qword [rbp-120]
    63                              <1> %define Tmp3		qword [rbp-128]
    64                              <1> 
    65                              <1> %define InHold0		qword [rbp-136]	; todo: replace InPrev with InHold, remove automatic update of InPrev during context save/restore (used in Functions.
    66                              <1> %define InHoldLen0	qword [rbp-144]
    67                              <1> %define InHold1		qword [rbp-152]
    68                              <1> %define InHoldLen1	qword [rbp-160]
    69                              <1> %define InHold2		qword [rbp-168]
    70                              <1> %define InHoldLen2	qword [rbp-176]
    71                              <1> %define InHold3		qword [rbp-184]	
    72                              <1> %define InHoldLen3	qword [rbp-192]
    73                              <1> %define InHold4		qword [rbp-200]	
    74                              <1> %define InHoldLen4	qword [rbp-208]
    75                              <1> %define InHold5		qword [rbp-216]	
    76                              <1> %define InHoldLen5	qword [rbp-224]
    77                              <1> 
    78                              <1> ; threading return stack
    79                              <1> %define mAddQuit	[rbp-tMemBL-8]	; BOS	= [rbp-248] (see line 16)
    80                              <1> %define mAddThread	[rbp-tMemBL-16]	; 	= [rbp-256] (see line 16)			; check not tested yet!!!!
    81                              <1> 
    82                              <1> 
    83                              <1> ;******************************************************* Application **********
    84                              <1> EXTERN Rum
    85                              <1> 
    86                              <1> ;******************************************************* EBNFKernel  **********
    87                              <1> EXTERN CLArg
    88                              <1> EXTERN sOut, sPush, sPushA, sCLArg, sConcat, sLI, sMessage, sI2HS
    89                              <1> EXTERN sLeft, sCutRight, sDrop, sDup, sKeyIn
    90                              <1> EXTERN mRSP
    91                              <1> EXTERN MemMap, MemUnmap
    92                              <1> 
    93                              <1> EXTERN InFile, OutFile
    94                              <1> EXTERN EOF
    95                              <1> EXTERN F2I, E2O, I2O, O2F, O2I, F2O, F2OAppend	; from X2X.asm
    96                              <1> EXTERN a, b, n, sIFSF				; from abn.asm
    97                              <1> EXTERN LILenMax, LIValMax
    98                              <1> 
    99                              <1> EXTERN pIn, pInterval, pIntervalQuad, pFindIn
   100                              <1> EXTERN cPush, cPop, cTop, cAndProlog, cAndEpilog, cDrop, cDropExcept
   101                              <1> EXTERN DropLastChar, IsNotDef
   102                              <1> 
   103                              <1> EXTERN cOpenTextGram, cCloseTextGram
   104                              <1> EXTERN cOpenH2HGram, cCloseH2HGram
   105                              <1> 
   106                              <1> EXTERN lClear, LblNew, LblUse, LblCls, LblPush, LblTop, LblDrop, pOutLbl
   107                              <1> 
   108                              <1> EXTERN SDIdStart, SDIdOper, SDIdEnd
   109                              <1> EXTERN pOut, pOutCr,  pOutLIHex, pOutLIHex2Bin, pOutLITrim, pOutLIdpTrim
   110                              <1> 
   111                              <1> EXTERN pOutLI, pOutLILen
   112                              <1> EXTERN pPI, pOutPI, pOutPILen
   113                              <1> 
   114                              <1> EXTERN pHI0, pOutHI0, pOutHILen0
   115                              <1> EXTERN pHI1, pOutHI1, pOutHILen1
   116                              <1> EXTERN pHI2, pOutHI2, pOutHILen2
   117                              <1> EXTERN pHI3, pOutHI3, pOutHILen3
   118                              <1> EXTERN pHI4, pOutHI4, pOutHILen4
   119                              <1> EXTERN pHI5, pOutHI5, pOutHILen5, sHI5
   120                              <1> 
   121                              <1> EXTERN OutSrcLin
   122                              <1> EXTERN pOutInPnt, pOutLILenByte
   123                              <1> EXTERN DspLstTrm, MsgLI, Message, MessageMem, ErrorMessage, Quit
   124                              <1> EXTERN Bin2Dec, Bin4Dec, BinNDec, Bin1Hex, Bin2Hex, BinNHex, Dec2Bin, Hex2Bin
   125                              <1> EXTERN WaitSecond, EcmaTime, IMFTime, GetTime
   126                              <1> EXTERN iRandom
   127                              <1> 
   128                              <1> EXTERN dspebnf
   129                              <1> 
   130                              <1> ;***************************************************** Heap.asm ***************
   131                              <1> EXTERN hClear, hOpen, hAdd, hClose, hCap, hGC
   132                              <1> EXTERN HeapPnt, Heap0, HeapEnd
   133                              <1> EXTERN dspheap
   134                              <1> ;***************************************************** Thread.asm *************
   135                              <1> Extern Thread, wQuit
   136                              <1> ;***************************************************** IP.asm *****************
   137                              <1> Extern ServerSockOpen, ServerSockClose
   138                              <1> Extern ClientSockOpen, ClientSockClose
   139                              <1> Extern S2I, O2S
   140                              <1> Extern dmpin, dmpout, dspin, dspout, dspfd, dspwmem
   141                              <1> ;***************************************************** DES.asm ****************
   142                              <1> EXTERN DES, GenEncKeys, GenDecKeys
   143                              <1> EXTERN SwapKeySet, DupKeySet, DropKeySet
   144                              <1> ;***************************************************** Dir.asm ****************
   145                              <1> EXTERN pOutDir
   146                              <1> 
   147                              <1> ;***************************************************** DebugTools.asm *********
   148                              <1> EXTERN dspreg, dsprex, dspxmm, dspymm
   149                              <1> EXTERN dmphex, dmpreg, dmprex, dmpxmm, dmpymm
   150                              <1> EXTERN dmphexrsi, dmphex10, dmphexold
   151                              <1> EXTERN msg, quit
   152                              <1> 
   153                              <1> 
     4                                  
     5                                  ;xxxxxxxxxxxxxxxxxxxxxxxxxxxxxxxxxxxxxxxxxxxxxxxxxxxxxxxxxxxxxxxxxxxxxxxxxxxxxx
     6                                  Rum:
     7 00000000 E8(00000000)            	call cPush
     8 00000005 E8(00000000)            	call Message
     9 0000000A 0A5374617274696E67-     	 db 0x0A, 'Starting..'
     9 00000013 2E2E               
    10 00000015 4809C9                  	or rPOk, rPOk
    11 00000018 7505                    	jnz SD0000
    12 0000001A E9B9000000              	jmp SDEnd0000
    13                                  SD0000:
    14 0000001F 6A01                    	push 1
    15 00000021 E8(00000000)            	call sCLArg
    16 00000026 E8(00000000)            	call sPush
    17 0000002B 042E626E66              	 db 0x0004, '.bnf'
    18 00000030 E8(00000000)            	call sConcat
    19 00000035 E8(00000000)            	call F2I
    20 0000003A 4809C9                  	or rPOk, rPOk
    21 0000003D 7505                    	jnz SD0001
    22 0000003F E994000000              	jmp SDEnd0000
    23                                  SD0001:
    24 00000044 E8(00000000)            	call Message
    25 00000049 1F4C6F616465642073-     	 db 0x1F, 'Loaded source..Compiled items: '
    25 00000052 6F757263652E2E436F-
    25 0000005B 6D70696C6564206974-
    25 00000064 656D733A20         
    26 00000069 4809C9                  	or rPOk, rPOk
    27 0000006C 7502                    	jnz SD0002
    28 0000006E EB68                    	jmp SDEnd0000
    29                                  SD0002:
    30 00000070 68[FF290000]            	push Grammar
    31 00000075 E8(00000000)            	call I2O
    32 0000007A 4809C9                  	or rPOk, rPOk
    33 0000007D 7502                    	jnz SD0003
    34 0000007F EB57                    	jmp SDEnd0000
    35                                  SD0003:
    36 00000081 E8(00000000)            	call Message
    37 00000086 0C4772616D6D617220-     	 db 0x0C, 'Grammar OK..'
    37 0000008F 4F4B2E2E           
    38 00000093 4809C9                  	or rPOk, rPOk
    39 00000096 7502                    	jnz SD0004
    40 00000098 EB3E                    	jmp SDEnd0000
    41                                  SD0004:
    42 0000009A 6A01                    	push 1
    43 0000009C E8(00000000)            	call sCLArg
    44 000000A1 E8(00000000)            	call sPush
    45 000000A6 042E61736D              	 db 0x0004, '.asm'
    46 000000AB E8(00000000)            	call sConcat
    47 000000B0 E8(00000000)            	call O2F
    48 000000B5 4809C9                  	or rPOk, rPOk
    49 000000B8 7502                    	jnz SD0005
    50 000000BA EB1C                    	jmp SDEnd0000
    51                                  SD0005:
    52 000000BC E8(00000000)            	call Message
    53 000000C1 165361766564206F62-     	 db 0x16, 'Saved object.. Done !', 0x0A
    53 000000CA 6A6563742E2E20446F-
    53 000000D3 6E6520210A         
    54                                  SDEnd0000:
    55 000000D8 E302                    	jrcxz DL0006
    56 000000DA EB1C                    	jmp DLEnd0006
    57 000000DC 48FFC1                  DL0006:	inc rcx
    58 000000DF E8(00000000)            	call cTop
    59 000000E4 E8(00000000)            	call ErrorMessage
    60 000000E9 0E416A2C20736F6D65-     	 db 0x0E, 'Aj, some error'
    60 000000F2 206572726F72       
    61                                  DLEnd0006:
    62 000000F8 E8(00000000)            	call cDrop
    63 000000FD C3                      	ret
    64                                  
    65                                  ;Rum	 = 	Message('Starting..')	, F2I (sConcat(sCLArg(1),'.bnf'))	, Message('Loaded source..Compiled items: ')
    66                                  ;					, I2O (*Grammar)			, Message('Grammar OK..')
    67                                  ;					, O2F (sConcat(sCLArg(1),'.asm'))	, Message('Saved object.. Done !', 0x0A)
    68                                  ;    					| ErrorMessage('Aj, some error');
    69                                  ;
    70                                  
    71                                  ;xxxxxxxxxxxxxxxxxxxxxxxxxxxxxxxxxxxxxxxxxxxxxxxxxxxxxxxxxxxxxxxxxxxxxxxxxxxxxx
    72                                  GrammarEOF:
    73 000000FE E8(00000000)            	call cPush
    74 00000103 E8F7280000              	call Grammar
    75 00000108 4809C9                  	or rPOk, rPOk
    76 0000010B 7502                    	jnz SD0007
    77 0000010D EB05                    	jmp SDEnd0007
    78                                  SD0007:
    79 0000010F E8(00000000)            	call EOF
    80                                  SDEnd0007:
    81 00000114 E8(00000000)            	call cDrop
    82 00000119 C3                      	ret
    83                                  
    84                                  ;GrammarEOF = Grammar, EOF;
    85                                  ;
    86                                  
    87                                  ;xxxxxxxxxxxxxxxxxxxxxxxxxxxxxxxxxxxxxxxxxxxxxxxxxxxxxxxxxxxxxxxxxxxxxxxxxxxxxx
    88                                  pLetter:
    89 0000011A E8(00000000)            	call cPush
    90 0000011F E8(00000000)            	call pInterval
    91 00000124 617A                    	 db 'a', 'z'
    92 00000126 E302                    	jrcxz DL0008
    93 00000128 EB22                    	jmp DLEnd0008
    94 0000012A 48FFC1                  DL0008:	inc rcx
    95 0000012D E8(00000000)            	call cTop
    96 00000132 E8(00000000)            	call pInterval
    97 00000137 415A                    	 db 'A', 'Z'
    98 00000139 E302                    	jrcxz DL0009
    99 0000013B EB0F                    	jmp DLEnd0008
   100 0000013D 48FFC1                  DL0009:	inc rcx
   101 00000140 E8(00000000)            	call cTop
   102 00000145 E8(00000000)            	call pIn
   103 0000014A 015F                    	 db 0x0001, "_"
   104                                  DLEnd0008:
   105 0000014C E8(00000000)            	call cDrop
   106 00000151 C3                      	ret
   107                                  
   108                                  ;pLetter		= 'a'..'z' | 'A'..'Z' | "_" ;
   109                                  
   110                                  ;xxxxxxxxxxxxxxxxxxxxxxxxxxxxxxxxxxxxxxxxxxxxxxxxxxxxxxxxxxxxxxxxxxxxxxxxxxxxxx
   111                                  pDigit:
   112 00000152 E8(00000000)            	call cPush
   113 00000157 E8(00000000)            	call pInterval
   114 0000015C 3039                    	 db '0', '9'
   115 0000015E E8(00000000)            	call cDrop
   116 00000163 C3                      	ret
   117                                  
   118                                  ;pDigit		= '0'..'9';
   119                                  
   120                                  ;xxxxxxxxxxxxxxxxxxxxxxxxxxxxxxxxxxxxxxxxxxxxxxxxxxxxxxxxxxxxxxxxxxxxxxxxxxxxxx
   121                                  pSymbol:
   122 00000164 E8(00000000)            	call cPush
   123 00000169 E8(00000000)            	call pIn
   124 0000016E 015B                    	 db 0x0001, '['
   125 00000170 E305                    	jrcxz DL000A
   126 00000172 E939020000              	jmp DLEnd000A
   127 00000177 48FFC1                  DL000A:	inc rcx
   128 0000017A E8(00000000)            	call cTop
   129 0000017F E8(00000000)            	call pIn
   130 00000184 015D                    	 db 0x0001, ']'
   131 00000186 E305                    	jrcxz DL000B
   132 00000188 E923020000              	jmp DLEnd000A
   133 0000018D 48FFC1                  DL000B:	inc rcx
   134 00000190 E8(00000000)            	call cTop
   135 00000195 E8(00000000)            	call pIn
   136 0000019A 017B                    	 db 0x0001, '{'
   137 0000019C E305                    	jrcxz DL000C
   138 0000019E E90D020000              	jmp DLEnd000A
   139 000001A3 48FFC1                  DL000C:	inc rcx
   140 000001A6 E8(00000000)            	call cTop
   141 000001AB E8(00000000)            	call pIn
   142 000001B0 017D                    	 db 0x0001, '}'
   143 000001B2 E305                    	jrcxz DL000D
   144 000001B4 E9F7010000              	jmp DLEnd000A
   145 000001B9 48FFC1                  DL000D:	inc rcx
   146 000001BC E8(00000000)            	call cTop
   147 000001C1 E8(00000000)            	call pIn
   148 000001C6 0128                    	 db 0x0001, '('
   149 000001C8 E305                    	jrcxz DL000E
   150 000001CA E9E1010000              	jmp DLEnd000A
   151 000001CF 48FFC1                  DL000E:	inc rcx
   152 000001D2 E8(00000000)            	call cTop
   153 000001D7 E8(00000000)            	call pIn
   154 000001DC 0129                    	 db 0x0001, ')'
   155 000001DE E305                    	jrcxz DL000F
   156 000001E0 E9CB010000              	jmp DLEnd000A
   157 000001E5 48FFC1                  DL000F:	inc rcx
   158 000001E8 E8(00000000)            	call cTop
   159 000001ED E8(00000000)            	call pIn
   160 000001F2 013C                    	 db 0x0001, '<'
   161 000001F4 E305                    	jrcxz DL0010
   162 000001F6 E9B5010000              	jmp DLEnd000A
   163 000001FB 48FFC1                  DL0010:	inc rcx
   164 000001FE E8(00000000)            	call cTop
   165 00000203 E8(00000000)            	call pIn
   166 00000208 013E                    	 db 0x0001, '>'
   167 0000020A E305                    	jrcxz DL0011
   168 0000020C E99F010000              	jmp DLEnd000A
   169 00000211 48FFC1                  DL0011:	inc rcx
   170 00000214 E8(00000000)            	call cTop
   171 00000219 E8(00000000)            	call pIn
   172 0000021E 013D                    	 db 0x0001, '='
   173 00000220 E305                    	jrcxz DL0012
   174 00000222 E989010000              	jmp DLEnd000A
   175 00000227 48FFC1                  DL0012:	inc rcx
   176 0000022A E8(00000000)            	call cTop
   177 0000022F E8(00000000)            	call pIn
   178 00000234 017C                    	 db 0x0001, '|'
   179 00000236 E305                    	jrcxz DL0013
   180 00000238 E973010000              	jmp DLEnd000A
   181 0000023D 48FFC1                  DL0013:	inc rcx
   182 00000240 E8(00000000)            	call cTop
   183 00000245 E8(00000000)            	call pIn
   184 0000024A 012E                    	 db 0x0001, '.'
   185 0000024C E305                    	jrcxz DL0014
   186 0000024E E95D010000              	jmp DLEnd000A
   187 00000253 48FFC1                  DL0014:	inc rcx
   188 00000256 E8(00000000)            	call cTop
   189 0000025B E8(00000000)            	call pIn
   190 00000260 0121                    	 db 0x0001, '!'
   191 00000262 E305                    	jrcxz DL0015
   192 00000264 E947010000              	jmp DLEnd000A
   193 00000269 48FFC1                  DL0015:	inc rcx
   194 0000026C E8(00000000)            	call cTop
   195 00000271 E8(00000000)            	call pIn
   196 00000276 0123                    	 db 1, 35
   197 00000278 E305                    	jrcxz DL0016
   198 0000027A E931010000              	jmp DLEnd000A
   199 0000027F 48FFC1                  DL0016:	inc rcx
   200 00000282 E8(00000000)            	call cTop
   201 00000287 E8(00000000)            	call pIn
   202 0000028C 012C                    	 db 0x0001, ','
   203 0000028E E305                    	jrcxz DL0017
   204 00000290 E91B010000              	jmp DLEnd000A
   205 00000295 48FFC1                  DL0017:	inc rcx
   206 00000298 E8(00000000)            	call cTop
   207 0000029D E8(00000000)            	call pIn
   208 000002A2 013B                    	 db 0x0001, ';'
   209 000002A4 E305                    	jrcxz DL0018
   210 000002A6 E905010000              	jmp DLEnd000A
   211 000002AB 48FFC1                  DL0018:	inc rcx
   212 000002AE E8(00000000)            	call cTop
   213 000002B3 E8(00000000)            	call pIn
   214 000002B8 012B                    	 db 0x0001, '+'
   215 000002BA E305                    	jrcxz DL0019
   216 000002BC E9EF000000              	jmp DLEnd000A
   217 000002C1 48FFC1                  DL0019:	inc rcx
   218 000002C4 E8(00000000)            	call cTop
   219 000002C9 E8(00000000)            	call pIn
   220 000002CE 012D                    	 db 0x0001, '-'
   221 000002D0 E305                    	jrcxz DL001A
   222 000002D2 E9D9000000              	jmp DLEnd000A
   223 000002D7 48FFC1                  DL001A:	inc rcx
   224 000002DA E8(00000000)            	call cTop
   225 000002DF E8(00000000)            	call pIn
   226 000002E4 013A                    	 db 0x0001, ':'
   227 000002E6 E305                    	jrcxz DL001B
   228 000002E8 E9C3000000              	jmp DLEnd000A
   229 000002ED 48FFC1                  DL001B:	inc rcx
   230 000002F0 E8(00000000)            	call cTop
   231 000002F5 E8(00000000)            	call pIn
   232 000002FA 0126                    	 db 0x0001, '&'
   233 000002FC E305                    	jrcxz DL001C
   234 000002FE E9AD000000              	jmp DLEnd000A
   235 00000303 48FFC1                  DL001C:	inc rcx
   236 00000306 E8(00000000)            	call cTop
   237 0000030B E8(00000000)            	call pIn
   238 00000310 015E                    	 db 0x0001, '^'
   239 00000312 E305                    	jrcxz DL001D
   240 00000314 E997000000              	jmp DLEnd000A
   241 00000319 48FFC1                  DL001D:	inc rcx
   242 0000031C E8(00000000)            	call cTop
   243 00000321 E8(00000000)            	call pIn
   244 00000326 012A                    	 db 0x0001, '*'
   245 00000328 E305                    	jrcxz DL001E
   246 0000032A E981000000              	jmp DLEnd000A
   247 0000032F 48FFC1                  DL001E:	inc rcx
   248 00000332 E8(00000000)            	call cTop
   249 00000337 E8(00000000)            	call pIn
   250 0000033C 015C                    	 db 0x0001, '\'
   251 0000033E E302                    	jrcxz DL001F
   252 00000340 EB6E                    	jmp DLEnd000A
   253 00000342 48FFC1                  DL001F:	inc rcx
   254 00000345 E8(00000000)            	call cTop
   255 0000034A E8(00000000)            	call pIn
   256 0000034F 015F                    	 db 0x0001, '_'
   257 00000351 E302                    	jrcxz DL0020
   258 00000353 EB5B                    	jmp DLEnd000A
   259 00000355 48FFC1                  DL0020:	inc rcx
   260 00000358 E8(00000000)            	call cTop
   261 0000035D E8(00000000)            	call pIn
   262 00000362 013F                    	 db 0x0001, '?'
   263 00000364 E302                    	jrcxz DL0021
   264 00000366 EB48                    	jmp DLEnd000A
   265 00000368 48FFC1                  DL0021:	inc rcx
   266 0000036B E8(00000000)            	call cTop
   267 00000370 E8(00000000)            	call pIn
   268 00000375 0140                    	 db 0x0001, '@'
   269 00000377 E302                    	jrcxz DL0022
   270 00000379 EB35                    	jmp DLEnd000A
   271 0000037B 48FFC1                  DL0022:	inc rcx
   272 0000037E E8(00000000)            	call cTop
   273 00000383 E8(00000000)            	call pIn
   274 00000388 012F                    	 db 0x0001, '/'
   275 0000038A E302                    	jrcxz DL0023
   276 0000038C EB22                    	jmp DLEnd000A
   277 0000038E 48FFC1                  DL0023:	inc rcx
   278 00000391 E8(00000000)            	call cTop
   279 00000396 E8(00000000)            	call pIn
   280 0000039B 0124                    	 db 1, 36
   281 0000039D E302                    	jrcxz DL0024
   282 0000039F EB0F                    	jmp DLEnd000A
   283 000003A1 48FFC1                  DL0024:	inc rcx
   284 000003A4 E8(00000000)            	call cTop
   285 000003A9 E8(00000000)            	call pIn
   286 000003AE 0125                    	 db 1, 37
   287                                  DLEnd000A:
   288 000003B0 E8(00000000)            	call cDrop
   289 000003B5 C3                      	ret
   290                                  
   291                                  ;pSymbol 	= '[' | ']' | '{' | '}' | '(' | ')' | '<' | '>' | '=' | '|' | '.' |
   292                                  ;		  '!' | ^35 | ',' | ';' | '+' | '-' | ':' | '&' | '^' | '*' | '\' |
   293                                  ;		  '_' | '?' | '@' | '/' | ^36 | ^37 ;
   294                                  
   295                                  ;xxxxxxxxxxxxxxxxxxxxxxxxxxxxxxxxxxxxxxxxxxxxxxxxxxxxxxxxxxxxxxxxxxxxxxxxxxxxxx
   296                                  pCtrlChar:
   297 000003B6 E8(00000000)            	call cPush
   298 000003BB E8(00000000)            	call pIn
   299 000003C0 0109                    	 db 1, 09
   300 000003C2 E302                    	jrcxz DL0025
   301 000003C4 EB22                    	jmp DLEnd0025
   302 000003C6 48FFC1                  DL0025:	inc rcx
   303 000003C9 E8(00000000)            	call cTop
   304 000003CE E8(00000000)            	call pIn
   305 000003D3 010A                    	 db 1, 10
   306 000003D5 E302                    	jrcxz DL0026
   307 000003D7 EB0F                    	jmp DLEnd0025
   308 000003D9 48FFC1                  DL0026:	inc rcx
   309 000003DC E8(00000000)            	call cTop
   310 000003E1 E8(00000000)            	call pIn
   311 000003E6 010D                    	 db 1, 13
   312                                  DLEnd0025:
   313 000003E8 E8(00000000)            	call cDrop
   314 000003ED C3                      	ret
   315                                  
   316                                  ;pCtrlChar	= ^09 | ^10 | ^13 ;
   317                                  
   318                                  ;xxxxxxxxxxxxxxxxxxxxxxxxxxxxxxxxxxxxxxxxxxxxxxxxxxxxxxxxxxxxxxxxxxxxxxxxxxxxxx
   319                                  pCharacter:
   320 000003EE E8(00000000)            	call cPush
   321 000003F3 E822FDFFFF              	call pLetter
   322 000003F8 E302                    	jrcxz DL0027
   323 000003FA EB42                    	jmp DLEnd0027
   324 000003FC 48FFC1                  DL0027:	inc rcx
   325 000003FF E8(00000000)            	call cTop
   326 00000404 E849FDFFFF              	call pDigit
   327 00000409 E302                    	jrcxz DL0028
   328 0000040B EB31                    	jmp DLEnd0027
   329 0000040D 48FFC1                  DL0028:	inc rcx
   330 00000410 E8(00000000)            	call cTop
   331 00000415 E84AFDFFFF              	call pSymbol
   332 0000041A E302                    	jrcxz DL0029
   333 0000041C EB20                    	jmp DLEnd0027
   334 0000041E 48FFC1                  DL0029:	inc rcx
   335 00000421 E8(00000000)            	call cTop
   336 00000426 E88BFFFFFF              	call pCtrlChar
   337 0000042B E302                    	jrcxz DL002A
   338 0000042D EB0F                    	jmp DLEnd0027
   339 0000042F 48FFC1                  DL002A:	inc rcx
   340 00000432 E8(00000000)            	call cTop
   341 00000437 E8(00000000)            	call pIn
   342 0000043C 0120                    	 db 0x0001, " "
   343                                  DLEnd0027:
   344 0000043E E8(00000000)            	call cDrop
   345 00000443 C3                      	ret
   346                                  
   347                                  ;pCharacter	= pLetter| pDigit| pSymbol| pCtrlChar| " ";
   348                                  
   349                                  ;xxxxxxxxxxxxxxxxxxxxxxxxxxxxxxxxxxxxxxxxxxxxxxxxxxxxxxxxxxxxxxxxxxxxxxxxxxxxxx
   350                                  pHexChar:
   351 00000444 E8(00000000)            	call cPush
   352 00000449 E8(00000000)            	call pInterval
   353 0000044E 3039                    	 db '0', '9'
   354 00000450 E302                    	jrcxz DL002B
   355 00000452 EB22                    	jmp DLEnd002B
   356 00000454 48FFC1                  DL002B:	inc rcx
   357 00000457 E8(00000000)            	call cTop
   358 0000045C E8(00000000)            	call pInterval
   359 00000461 6166                    	 db 'a', 'f'
   360 00000463 E302                    	jrcxz DL002C
   361 00000465 EB0F                    	jmp DLEnd002B
   362 00000467 48FFC1                  DL002C:	inc rcx
   363 0000046A E8(00000000)            	call cTop
   364 0000046F E8(00000000)            	call pInterval
   365 00000474 4146                    	 db 'A', 'F'
   366                                  DLEnd002B:
   367 00000476 E8(00000000)            	call cDrop
   368 0000047B C3                      	ret
   369                                  
   370                                  ;pHexChar	= '0'..'9' |'a'..'f'| 'A'..'F';
   371                                  
   372                                  ;xxxxxxxxxxxxxxxxxxxxxxxxxxxxxxxxxxxxxxxxxxxxxxxxxxxxxxxxxxxxxxxxxxxxxxxxxxxxxx
   373                                  pComment:
   374 0000047C E8(00000000)            	call cPush
   375 00000481 E8(00000000)            	call pIn
   376 00000486 022F2A                  	 db 0x0002, '/*'
   377 00000489 4809C9                  	or rPOk, rPOk
   378 0000048C 7502                    	jnz SD002D
   379 0000048E EB55                    	jmp SDEnd002D
   380                                  SD002D:
   381 00000490 E8(00000000)            	call cPush
   382                                  RSRep0030:
   383 00000495 E8(00000000)            	call cPush
   384 0000049A E8(00000000)            	call pInterval
   385 0000049F 00FF                    	 db 0, 255
   386 000004A1 4809C9                  	or rPOk, rPOk
   387 000004A4 7502                    	jnz ExChk0031
   388 000004A6 EB15                    	jmp ExEnd0031
   389                                  ExChk0031:
   390 000004A8 E8(00000000)            	call cPush
   391 000004AD 4D29E0                  	sub rInPnt, rLastInLen
   392 000004B0 E8(00000000)            	call pIn
   393 000004B5 022A2F                  	 db 0x0002, '*/'
   394 000004B8 E8(00000000)            	call cDropExcept
   395                                  ExEnd0031:
   396 000004BD E8(00000000)            	call cDrop
   397 000004C2 E307                    	jrcxz RSEnd0030
   398 000004C4 4D09F6                  	or rInEndFlg, rInEndFlg
   399 000004C7 7502                    	jnz RSEnd0030
   400 000004C9 EBCA                    	jmp RSRep0030
   401                                  RSEnd0030:
   402 000004CB 4831C9                  	xor rPOk, rPOk
   403 000004CE 48FFC1                  	inc rPOk
   404 000004D1 E8(00000000)            	call cDrop
   405 000004D6 4809C9                  	or rPOk, rPOk
   406 000004D9 7502                    	jnz SD0032
   407 000004DB EB08                    	jmp SDEnd002D
   408                                  SD0032:
   409 000004DD E8(00000000)            	call pIn
   410 000004E2 022A2F                  	 db 0x0002, '*/'
   411                                  SDEnd002D:
   412 000004E5 E8(00000000)            	call cDrop
   413 000004EA C3                      	ret
   414                                  
   415                                  ;pComment	= '/*' , {^0..^255-'*/'} , '*/' ;
   416                                  ;
   417                                  
   418                                  ;xxxxxxxxxxxxxxxxxxxxxxxxxxxxxxxxxxxxxxxxxxxxxxxxxxxxxxxxxxxxxxxxxxxxxxxxxxxxxx
   419                                  pCode:
   420 000004EB E8(00000000)            	call cPush
   421 000004F0 E8(00000000)            	call cPush
   422 000004F5 E8(00000000)            	call cPush
   423                                  KSRep0033:
   424 000004FA E8(00000000)            	call cPush
   425 000004FF E8(00000000)            	call pIn
   426 00000504 023C3C                  	 db 0x0002, '<<'
   427 00000507 4809C9                  	or rPOk, rPOk
   428 0000050A 7505                    	jnz SD0034
   429 0000050C E9AA000000              	jmp SDEnd0034
   430                                  SD0034:
   431 00000511 E8(00000000)            	call cPush
   432                                  RSRep0037:
   433 00000516 E8(00000000)            	call cPush
   434 0000051B E8(00000000)            	call pInterval
   435 00000520 00FF                    	 db 0, 255
   436 00000522 4809C9                  	or rPOk, rPOk
   437 00000525 7502                    	jnz ExChk0038
   438 00000527 EB15                    	jmp ExEnd0038
   439                                  ExChk0038:
   440 00000529 E8(00000000)            	call cPush
   441 0000052E 4D29E0                  	sub rInPnt, rLastInLen
   442 00000531 E8(00000000)            	call pIn
   443 00000536 023E3E                  	 db 0x0002, '>>'
   444 00000539 E8(00000000)            	call cDropExcept
   445                                  ExEnd0038:
   446 0000053E E8(00000000)            	call cDrop
   447 00000543 E307                    	jrcxz RSEnd0037
   448 00000545 4D09F6                  	or rInEndFlg, rInEndFlg
   449 00000548 7502                    	jnz RSEnd0037
   450 0000054A EBCA                    	jmp RSRep0037
   451                                  RSEnd0037:
   452 0000054C 4831C9                  	xor rPOk, rPOk
   453 0000054F 48FFC1                  	inc rPOk
   454 00000552 E8(00000000)            	call cDrop
   455 00000557 4809C9                  	or rPOk, rPOk
   456 0000055A 7502                    	jnz SD0039
   457 0000055C EB5D                    	jmp SDEnd0034
   458                                  SD0039:
   459 0000055E E8(00000000)            	call pOut
   460 00000563 010A                    	 db 1, 10
   461 00000565 E8(00000000)            	call pOutLI
   462 0000056A 4809C9                  	or rPOk, rPOk
   463 0000056D 7502                    	jnz SD003A
   464 0000056F EB4A                    	jmp SDEnd0034
   465                                  SD003A:
   466 00000571 E8(00000000)            	call pIn
   467 00000576 023E3E                  	 db 0x0002, '>>'
   468 00000579 4809C9                  	or rPOk, rPOk
   469 0000057C 7502                    	jnz SD003B
   470 0000057E EB3B                    	jmp SDEnd0034
   471                                  SD003B:
   472 00000580 E8(00000000)            	call cPush
   473                                  RSRep003E:
   474 00000585 E8(00000000)            	call cPush
   475 0000058A E827FEFFFF              	call pCtrlChar
   476 0000058F E302                    	jrcxz DL003F
   477 00000591 EB0F                    	jmp DLEnd003F
   478 00000593 48FFC1                  DL003F:	inc rcx
   479 00000596 E8(00000000)            	call cTop
   480 0000059B E8(00000000)            	call pIn
   481 000005A0 0120                    	 db 0x0001, " "
   482                                  DLEnd003F:
   483 000005A2 E8(00000000)            	call cDrop
   484 000005A7 E307                    	jrcxz RSEnd003E
   485 000005A9 4D09F6                  	or rInEndFlg, rInEndFlg
   486 000005AC 7502                    	jnz RSEnd003E
   487 000005AE EBD5                    	jmp RSRep003E
   488                                  RSEnd003E:
   489 000005B0 4831C9                  	xor rPOk, rPOk
   490 000005B3 48FFC1                  	inc rPOk
   491 000005B6 E8(00000000)            	call cDrop
   492                                  SDEnd0034:
   493 000005BB E8(00000000)            	call cDrop
   494 000005C0 E30A                    	jrcxz KS0033
   495 000005C2 4D09F6                  	or rInEndFlg, rInEndFlg
   496 000005C5 7505                    	jnz KS0033
   497 000005C7 E92EFFFFFF              	jmp KSRep0033
   498                                  KS0033:
   499 000005CC 4831C9                  	xor rPOk, rPOk
   500 000005CF 4C3B442438              	cmp rInPnt, [rsp+56]
   501 000005D4 7403                    	jz KSEnd0033
   502 000005D6 48FFC1                  	inc rPOk
   503                                  KSEnd0033:
   504 000005D9 4883C440                	add rsp, 64
   505 000005DD E8(00000000)            	call cDrop
   506 000005E2 E8(00000000)            	call cDrop
   507 000005E7 C3                      	ret
   508                                  
   509                                  ;pCode		= {'<<' , {^0..^255-'>>'},					<.	call pOut.>	
   510                                  ;										<.	 db 1, 10.>
   511                                  ;										<.	call pOutLI.>,
   512                                  ;					  '>>' , {pCtrlChar|" "}}*;
   513                                  ;				  
   514                                  
   515                                  ;xxxxxxxxxxxxxxxxxxxxxxxxxxxxxxxxxxxxxxxxxxxxxxxxxxxxxxxxxxxxxxxxxxxxxxxxxxxxxx
   516                                  pCodeCond:
   517 000005E8 E8(00000000)            	call cPush
   518 000005ED E8(00000000)            	call cPush
   519 000005F2 E8(00000000)            	call cPush
   520                                  KSRep0040:
   521 000005F7 E8(00000000)            	call cPush
   522 000005FC E8(00000000)            	call pIn
   523 00000601 023C2E                  	 db 0x0002, '<.'
   524 00000604 4809C9                  	or rPOk, rPOk
   525 00000607 7505                    	jnz SD0041
   526 00000609 E9AA000000              	jmp SDEnd0041
   527                                  SD0041:
   528 0000060E E8(00000000)            	call cPush
   529                                  RSRep0044:
   530 00000613 E8(00000000)            	call cPush
   531 00000618 E8(00000000)            	call pInterval
   532 0000061D 00FF                    	 db 0, 255
   533 0000061F 4809C9                  	or rPOk, rPOk
   534 00000622 7502                    	jnz ExChk0045
   535 00000624 EB15                    	jmp ExEnd0045
   536                                  ExChk0045:
   537 00000626 E8(00000000)            	call cPush
   538 0000062B 4D29E0                  	sub rInPnt, rLastInLen
   539 0000062E E8(00000000)            	call pIn
   540 00000633 022E3E                  	 db 0x0002, '.>'
   541 00000636 E8(00000000)            	call cDropExcept
   542                                  ExEnd0045:
   543 0000063B E8(00000000)            	call cDrop
   544 00000640 E307                    	jrcxz RSEnd0044
   545 00000642 4D09F6                  	or rInEndFlg, rInEndFlg
   546 00000645 7502                    	jnz RSEnd0044
   547 00000647 EBCA                    	jmp RSRep0044
   548                                  RSEnd0044:
   549 00000649 4831C9                  	xor rPOk, rPOk
   550 0000064C 48FFC1                  	inc rPOk
   551 0000064F E8(00000000)            	call cDrop
   552 00000654 4809C9                  	or rPOk, rPOk
   553 00000657 7502                    	jnz SD0046
   554 00000659 EB5D                    	jmp SDEnd0041
   555                                  SD0046:
   556 0000065B E8(00000000)            	call pOut
   557 00000660 010A                    	 db 1, 10
   558 00000662 E8(00000000)            	call pOutLI
   559 00000667 4809C9                  	or rPOk, rPOk
   560 0000066A 7502                    	jnz SD0047
   561 0000066C EB4A                    	jmp SDEnd0041
   562                                  SD0047:
   563 0000066E E8(00000000)            	call pIn
   564 00000673 022E3E                  	 db 0x0002, '.>'
   565 00000676 4809C9                  	or rPOk, rPOk
   566 00000679 7502                    	jnz SD0048
   567 0000067B EB3B                    	jmp SDEnd0041
   568                                  SD0048:
   569 0000067D E8(00000000)            	call cPush
   570                                  RSRep004B:
   571 00000682 E8(00000000)            	call cPush
   572 00000687 E82AFDFFFF              	call pCtrlChar
   573 0000068C E302                    	jrcxz DL004C
   574 0000068E EB0F                    	jmp DLEnd004C
   575 00000690 48FFC1                  DL004C:	inc rcx
   576 00000693 E8(00000000)            	call cTop
   577 00000698 E8(00000000)            	call pIn
   578 0000069D 0120                    	 db 0x0001, " "
   579                                  DLEnd004C:
   580 0000069F E8(00000000)            	call cDrop
   581 000006A4 E307                    	jrcxz RSEnd004B
   582 000006A6 4D09F6                  	or rInEndFlg, rInEndFlg
   583 000006A9 7502                    	jnz RSEnd004B
   584 000006AB EBD5                    	jmp RSRep004B
   585                                  RSEnd004B:
   586 000006AD 4831C9                  	xor rPOk, rPOk
   587 000006B0 48FFC1                  	inc rPOk
   588 000006B3 E8(00000000)            	call cDrop
   589                                  SDEnd0041:
   590 000006B8 E8(00000000)            	call cDrop
   591 000006BD E30A                    	jrcxz KS0040
   592 000006BF 4D09F6                  	or rInEndFlg, rInEndFlg
   593 000006C2 7505                    	jnz KS0040
   594 000006C4 E92EFFFFFF              	jmp KSRep0040
   595                                  KS0040:
   596 000006C9 4831C9                  	xor rPOk, rPOk
   597 000006CC 4C3B442438              	cmp rInPnt, [rsp+56]
   598 000006D1 7403                    	jz KSEnd0040
   599 000006D3 48FFC1                  	inc rPOk
   600                                  KSEnd0040:
   601 000006D6 4883C440                	add rsp, 64
   602 000006DA E8(00000000)            	call cDrop
   603 000006DF E8(00000000)            	call cDrop
   604 000006E4 C3                      	ret
   605                                  
   606                                  ;pCodeCond	= {'<.' , {^0..^255-'.>'},					<.	call pOut.>
   607                                  ;										<.	 db 1, 10.>
   608                                  ;										<.	call pOutLI.>,
   609                                  ;					  '.>' , {pCtrlChar|" "}}*;
   610                                  ;
   611                                  ;
   612                                  
   613                                  ;xxxxxxxxxxxxxxxxxxxxxxxxxxxxxxxxxxxxxxxxxxxxxxxxxxxxxxxxxxxxxxxxxxxxxxxxxxxxxx
   614                                  pS:
   615 000006E5 E8(00000000)            	call cPush
   616 000006EA E8(00000000)            	call cPush
   617                                  RSRep0051:
   618 000006EF E8(00000000)            	call cPush
   619 000006F4 E8(00000000)            	call pIn
   620 000006F9 0120                    	 db 0x0001, ' '
   621 000006FB E302                    	jrcxz DL0052
   622 000006FD EB2F                    	jmp DLEnd0052
   623 000006FF 48FFC1                  DL0052:	inc rcx
   624 00000702 E8(00000000)            	call cTop
   625 00000707 E8AAFCFFFF              	call pCtrlChar
   626 0000070C E302                    	jrcxz DL0053
   627 0000070E EB1E                    	jmp DLEnd0052
   628 00000710 48FFC1                  DL0053:	inc rcx
   629 00000713 E8(00000000)            	call cTop
   630 00000718 E85FFDFFFF              	call pComment
   631 0000071D E302                    	jrcxz DL0054
   632 0000071F EB0D                    	jmp DLEnd0052
   633 00000721 48FFC1                  DL0054:	inc rcx
   634 00000724 E8(00000000)            	call cTop
   635 00000729 E8BDFDFFFF              	call pCode
   636                                  DLEnd0052:
   637 0000072E E8(00000000)            	call cDrop
   638 00000733 E307                    	jrcxz RSEnd0051
   639 00000735 4D09F6                  	or rInEndFlg, rInEndFlg
   640 00000738 7502                    	jnz RSEnd0051
   641 0000073A EBB3                    	jmp RSRep0051
   642                                  RSEnd0051:
   643 0000073C 4831C9                  	xor rPOk, rPOk
   644 0000073F 48FFC1                  	inc rPOk
   645 00000742 E8(00000000)            	call cDrop
   646 00000747 E8(00000000)            	call cDrop
   647 0000074C C3                      	ret
   648                                  
   649                                  ;pS		= {' ' |pCtrlChar |pComment| pCode};
   650                                  
   651                                  ;xxxxxxxxxxxxxxxxxxxxxxxxxxxxxxxxxxxxxxxxxxxxxxxxxxxxxxxxxxxxxxxxxxxxxxxxxxxxxx
   652                                  pInteger:
   653 0000074D E8(00000000)            	call cPush
   654 00000752 E8FBF9FFFF              	call pDigit
   655 00000757 4809C9                  	or rPOk, rPOk
   656 0000075A 7502                    	jnz SD0055
   657 0000075C EB28                    	jmp SDEnd0055
   658                                  SD0055:
   659 0000075E E8(00000000)            	call cPush
   660                                  RSRep0057:
   661 00000763 E8(00000000)            	call cPush
   662 00000768 E8E5F9FFFF              	call pDigit
   663 0000076D E8(00000000)            	call cDrop
   664 00000772 E307                    	jrcxz RSEnd0057
   665 00000774 4D09F6                  	or rInEndFlg, rInEndFlg
   666 00000777 7502                    	jnz RSEnd0057
   667 00000779 EBE8                    	jmp RSRep0057
   668                                  RSEnd0057:
   669 0000077B 4831C9                  	xor rPOk, rPOk
   670 0000077E 48FFC1                  	inc rPOk
   671 00000781 E8(00000000)            	call cDrop
   672                                  SDEnd0055:
   673 00000786 E8(00000000)            	call cDrop
   674 0000078B C3                      	ret
   675                                  
   676                                  ;pInteger	= pDigit, {pDigit};
   677                                  
   678                                  ;xxxxxxxxxxxxxxxxxxxxxxxxxxxxxxxxxxxxxxxxxxxxxxxxxxxxxxxxxxxxxxxxxxxxxxxxxxxxxx
   679                                  pIdentifier:
   680 0000078C E8(00000000)            	call cPush
   681 00000791 E884F9FFFF              	call pLetter
   682 00000796 4809C9                  	or rPOk, rPOk
   683 00000799 7502                    	jnz SD0058
   684 0000079B EB39                    	jmp SDEnd0058
   685                                  SD0058:
   686 0000079D E8(00000000)            	call cPush
   687                                  RSRep005B:
   688 000007A2 E8(00000000)            	call cPush
   689 000007A7 E86EF9FFFF              	call pLetter
   690 000007AC E302                    	jrcxz DL005C
   691 000007AE EB0D                    	jmp DLEnd005C
   692 000007B0 48FFC1                  DL005C:	inc rcx
   693 000007B3 E8(00000000)            	call cTop
   694 000007B8 E895F9FFFF              	call pDigit
   695                                  DLEnd005C:
   696 000007BD E8(00000000)            	call cDrop
   697 000007C2 E307                    	jrcxz RSEnd005B
   698 000007C4 4D09F6                  	or rInEndFlg, rInEndFlg
   699 000007C7 7502                    	jnz RSEnd005B
   700 000007C9 EBD7                    	jmp RSRep005B
   701                                  RSEnd005B:
   702 000007CB 4831C9                  	xor rPOk, rPOk
   703 000007CE 48FFC1                  	inc rPOk
   704 000007D1 E8(00000000)            	call cDrop
   705                                  SDEnd0058:
   706 000007D6 E8(00000000)            	call cDrop
   707 000007DB C3                      	ret
   708                                  
   709                                  ;pIdentifier	= pLetter, { pLetter | pDigit } ;
   710                                  ;
   711                                  
   712                                  ;xxxxxxxxxxxxxxxxxxxxxxxxxxxxxxxxxxxxxxxxxxxxxxxxxxxxxxxxxxxxxxxxxxxxxxxxxxxxxx
   713                                  pTerminal:
   714 000007DC E8(00000000)            	call cPush
   715 000007E1 E8FFFEFFFF              	call pS
   716 000007E6 4809C9                  	or rPOk, rPOk
   717 000007E9 7505                    	jnz SD005D
   718 000007EB E9D2090000              	jmp SDEnd005D
   719                                  SD005D:
   720 000007F0 E8(00000000)            	call cPush
   721 000007F5 E8(00000000)            	call cPush
   722 000007FA E8(00000000)            	call pIn
   723 000007FF 023078                  	 db 0x0002, '0x'
   724 00000802 4809C9                  	or rPOk, rPOk
   725 00000805 7502                    	jnz SD005E
   726 00000807 EB19                    	jmp SDEnd005E
   727                                  SD005E:
   728 00000809 41BD10000000            	mov rFactCnt, 16
   729 0000080F 4D09ED                  	or rFactCnt, rFactCnt
   730 00000812 740E                    	jz FacEnd005F
   731                                  FacRep005F:
   732 00000814 E82BFCFFFF              	call pHexChar
   733 00000819 49FFCD                  	dec rFactCnt
   734 0000081C E304                    	jrcxz FacEnd005F
   735 0000081E 7402                    	jz FacEnd005F
   736 00000820 EBF2                    	jmp FacRep005F
   737                                  FacEnd005F:
   738                                  SDEnd005E:
   739 00000822 E8(00000000)            	call cDrop
   740 00000827 4809C9                  	or rPOk, rPOk
   741 0000082A 7505                    	jnz SD0060
   742 0000082C E9A3000000              	jmp SDEnd0060
   743                                  SD0060:
   744 00000831 E8(00000000)            	call pOut
   745 00000836 140A0963616C6C2070-     	 db 20, 10, 9, "call pIntervalQuad"
   745 0000083F 496E74657276616C51-
   745 00000848 756164             
   746 0000084B E8(00000000)            	call pOut
   747 00000850 060A0920647120          	 db 6, 10, 9, ' dq '
   748 00000857 E8(00000000)            	call pOutLI
   749 0000085C 4809C9                  	or rPOk, rPOk
   750 0000085F 7502                    	jnz SD0061
   751 00000861 EB71                    	jmp SDEnd0060
   752                                  SD0061:
   753 00000863 E87DFEFFFF              	call pS
   754 00000868 4809C9                  	or rPOk, rPOk
   755 0000086B 7502                    	jnz SD0062
   756 0000086D EB65                    	jmp SDEnd0060
   757                                  SD0062:
   758 0000086F E8(00000000)            	call pIn
   759 00000874 022E2E                  	 db 0x0002, '..'
   760 00000877 4809C9                  	or rPOk, rPOk
   761 0000087A 7502                    	jnz SD0063
   762 0000087C EB56                    	jmp SDEnd0060
   763                                  SD0063:
   764 0000087E E862FEFFFF              	call pS
   765 00000883 4809C9                  	or rPOk, rPOk
   766 00000886 7502                    	jnz SD0064
   767 00000888 EB4A                    	jmp SDEnd0060
   768                                  SD0064:
   769 0000088A E8(00000000)            	call cPush
   770 0000088F E8(00000000)            	call pIn
   771 00000894 023078                  	 db 0x0002, '0x'
   772 00000897 4809C9                  	or rPOk, rPOk
   773 0000089A 7502                    	jnz SD0065
   774 0000089C EB19                    	jmp SDEnd0065
   775                                  SD0065:
   776 0000089E 41BD10000000            	mov rFactCnt, 16
   777 000008A4 4D09ED                  	or rFactCnt, rFactCnt
   778 000008A7 740E                    	jz FacEnd0066
   779                                  FacRep0066:
   780 000008A9 E896FBFFFF              	call pHexChar
   781 000008AE 49FFCD                  	dec rFactCnt
   782 000008B1 E304                    	jrcxz FacEnd0066
   783 000008B3 7402                    	jz FacEnd0066
   784 000008B5 EBF2                    	jmp FacRep0066
   785                                  FacEnd0066:
   786                                  SDEnd0065:
   787 000008B7 E8(00000000)            	call cDrop
   788 000008BC 4809C9                  	or rPOk, rPOk
   789 000008BF 7502                    	jnz SD0067
   790 000008C1 EB11                    	jmp SDEnd0060
   791                                  SD0067:
   792 000008C3 E8(00000000)            	call pOut
   793 000008C8 060A0920647120          	 db 6, 10, 9, ' dq '
   794 000008CF E8(00000000)            	call pOutLI
   795                                  SDEnd0060:
   796 000008D4 E305                    	jrcxz DL0068
   797 000008D6 E9E2080000              	jmp DLEnd0068
   798 000008DB 48FFC1                  DL0068:	inc rcx
   799 000008DE E8(00000000)            	call cTop
   800 000008E3 E8(00000000)            	call cPush
   801 000008E8 E8(00000000)            	call pIn
   802 000008ED 023078                  	 db 0x0002, '0x'
   803 000008F0 4809C9                  	or rPOk, rPOk
   804 000008F3 7502                    	jnz SD0069
   805 000008F5 EB19                    	jmp SDEnd0069
   806                                  SD0069:
   807 000008F7 41BD10000000            	mov rFactCnt, 16
   808 000008FD 4D09ED                  	or rFactCnt, rFactCnt
   809 00000900 740E                    	jz FacEnd006A
   810                                  FacRep006A:
   811 00000902 E83DFBFFFF              	call pHexChar
   812 00000907 49FFCD                  	dec rFactCnt
   813 0000090A E304                    	jrcxz FacEnd006A
   814 0000090C 7402                    	jz FacEnd006A
   815 0000090E EBF2                    	jmp FacRep006A
   816                                  FacEnd006A:
   817                                  SDEnd0069:
   818 00000910 E8(00000000)            	call cDrop
   819 00000915 4809C9                  	or rPOk, rPOk
   820 00000918 7502                    	jnz SD006B
   821 0000091A EB28                    	jmp SDEnd006B
   822                                  SD006B:
   823 0000091C E8(00000000)            	call pOut
   824 00000921 0A0A0963616C6C2070-     	 db 10, 10, 9, "call pIn"
   824 0000092A 496E               
   825 0000092C E8(00000000)            	call pOut
   826 00000931 0D0A0920646220380A-     	 db 13, 10, 9, ' db 8', 10, 9, ' dq '
   826 0000093A 0920647120         
   827 0000093F E8(00000000)            	call pOutLI
   828                                  SDEnd006B:
   829 00000944 E305                    	jrcxz DL006C
   830 00000946 E972080000              	jmp DLEnd0068
   831 0000094B 48FFC1                  DL006C:	inc rcx
   832 0000094E E8(00000000)            	call cTop
   833 00000953 E8(00000000)            	call cPush
   834 00000958 E8(00000000)            	call pIn
   835 0000095D 023078                  	 db 0x0002, '0x'
   836 00000960 4809C9                  	or rPOk, rPOk
   837 00000963 7502                    	jnz SD006D
   838 00000965 EB19                    	jmp SDEnd006D
   839                                  SD006D:
   840 00000967 41BD02000000            	mov rFactCnt, 2
   841 0000096D 4D09ED                  	or rFactCnt, rFactCnt
   842 00000970 740E                    	jz FacEnd006E
   843                                  FacRep006E:
   844 00000972 E8CDFAFFFF              	call pHexChar
   845 00000977 49FFCD                  	dec rFactCnt
   846 0000097A E304                    	jrcxz FacEnd006E
   847 0000097C 7402                    	jz FacEnd006E
   848 0000097E EBF2                    	jmp FacRep006E
   849                                  FacEnd006E:
   850                                  SDEnd006D:
   851 00000980 E8(00000000)            	call cDrop
   852 00000985 4809C9                  	or rPOk, rPOk
   853 00000988 7505                    	jnz SD006F
   854 0000098A E99B000000              	jmp SDEnd006F
   855                                  SD006F:
   856 0000098F E8(00000000)            	call pOut
   857 00000994 100A0963616C6C2070-     	 db 16, 10, 9, "call pInterval"
   857 0000099D 496E74657276616C   
   858 000009A5 E8(00000000)            	call pOut
   859 000009AA 060A0920646220          	 db 6, 10, 9, " db "
   860 000009B1 E8(00000000)            	call pOutLI
   861 000009B6 E8(00000000)            	call pOut
   862 000009BB 022C20                  	 db 2, ", "
   863 000009BE 4809C9                  	or rPOk, rPOk
   864 000009C1 7502                    	jnz SD0070
   865 000009C3 EB65                    	jmp SDEnd006F
   866                                  SD0070:
   867 000009C5 E81BFDFFFF              	call pS
   868 000009CA 4809C9                  	or rPOk, rPOk
   869 000009CD 7502                    	jnz SD0071
   870 000009CF EB59                    	jmp SDEnd006F
   871                                  SD0071:
   872 000009D1 E8(00000000)            	call pIn
   873 000009D6 022E2E                  	 db 0x0002, '..'
   874 000009D9 4809C9                  	or rPOk, rPOk
   875 000009DC 7502                    	jnz SD0072
   876 000009DE EB4A                    	jmp SDEnd006F
   877                                  SD0072:
   878 000009E0 E800FDFFFF              	call pS
   879 000009E5 4809C9                  	or rPOk, rPOk
   880 000009E8 7502                    	jnz SD0073
   881 000009EA EB3E                    	jmp SDEnd006F
   882                                  SD0073:
   883 000009EC E8(00000000)            	call cPush
   884 000009F1 E8(00000000)            	call pIn
   885 000009F6 023078                  	 db 0x0002, '0x'
   886 000009F9 4809C9                  	or rPOk, rPOk
   887 000009FC 7502                    	jnz SD0074
   888 000009FE EB19                    	jmp SDEnd0074
   889                                  SD0074:
   890 00000A00 41BD02000000            	mov rFactCnt, 2
   891 00000A06 4D09ED                  	or rFactCnt, rFactCnt
   892 00000A09 740E                    	jz FacEnd0075
   893                                  FacRep0075:
   894 00000A0B E834FAFFFF              	call pHexChar
   895 00000A10 49FFCD                  	dec rFactCnt
   896 00000A13 E304                    	jrcxz FacEnd0075
   897 00000A15 7402                    	jz FacEnd0075
   898 00000A17 EBF2                    	jmp FacRep0075
   899                                  FacEnd0075:
   900                                  SDEnd0074:
   901 00000A19 E8(00000000)            	call cDrop
   902 00000A1E 4809C9                  	or rPOk, rPOk
   903 00000A21 7502                    	jnz SD0076
   904 00000A23 EB05                    	jmp SDEnd006F
   905                                  SD0076:
   906 00000A25 E8(00000000)            	call pOutLI
   907                                  SDEnd006F:
   908 00000A2A E305                    	jrcxz DL0077
   909 00000A2C E98C070000              	jmp DLEnd0068
   910 00000A31 48FFC1                  DL0077:	inc rcx
   911 00000A34 E8(00000000)            	call cTop
   912 00000A39 E8(00000000)            	call cPush
   913 00000A3E E8(00000000)            	call pIn
   914 00000A43 023078                  	 db 0x0002, "0x"
   915 00000A46 4809C9                  	or rPOk, rPOk
   916 00000A49 7502                    	jnz SD0078
   917 00000A4B EB19                    	jmp SDEnd0078
   918                                  SD0078:
   919 00000A4D 41BD02000000            	mov rFactCnt, 2
   920 00000A53 4D09ED                  	or rFactCnt, rFactCnt
   921 00000A56 740E                    	jz FacEnd0079
   922                                  FacRep0079:
   923 00000A58 E8E7F9FFFF              	call pHexChar
   924 00000A5D 49FFCD                  	dec rFactCnt
   925 00000A60 E304                    	jrcxz FacEnd0079
   926 00000A62 7402                    	jz FacEnd0079
   927 00000A64 EBF2                    	jmp FacRep0079
   928                                  FacEnd0079:
   929                                  SDEnd0078:
   930 00000A66 E8(00000000)            	call cDrop
   931 00000A6B 4809C9                  	or rPOk, rPOk
   932 00000A6E 7505                    	jnz SD007A
   933 00000A70 E9C5000000              	jmp SDEnd007A
   934                                  SD007A:
   935 00000A75 E8(00000000)            	call pOut
   936 00000A7A 0A0A0963616C6C2070-     	 db 10, 10, 9, "call pIn"
   936 00000A83 496E               
   937 00000A85 E8(00000000)            	call pOut
   938 00000A8A 080A09206462203078      	 db 8, 10, 9, " db 0x"
   939 00000A93 4D89D7                  	mov r15, rOutPnt
   940 00000A96 E8(00000000)            	call pOut
   941 00000A9B 0401002C20              	 db 4, 1, 0, ", "
   942 00000AA0 E8(00000000)            	call pOutLI
   943 00000AA5 4809C9                  	or rPOk, rPOk
   944 00000AA8 7505                    	jnz SD007B
   945 00000AAA E98B000000              	jmp SDEnd007A
   946                                  SD007B:
   947 00000AAF E8(00000000)            	call cPush
   948                                  RSRep0081:
   949 00000AB4 E8(00000000)            	call cPush
   950 00000AB9 E8(00000000)            	call pIn
   951 00000ABE 0120                    	 db 0x0001, " "
   952 00000AC0 4809C9                  	or rPOk, rPOk
   953 00000AC3 7502                    	jnz SD0082
   954 00000AC5 EB48                    	jmp SDEnd0082
   955                                  SD0082:
   956 00000AC7 E819FCFFFF              	call pS
   957 00000ACC 4809C9                  	or rPOk, rPOk
   958 00000ACF 7502                    	jnz SD0083
   959 00000AD1 EB3C                    	jmp SDEnd0082
   960                                  SD0083:
   961 00000AD3 E8(00000000)            	call cPush
   962 00000AD8 41BD02000000            	mov rFactCnt, 2
   963 00000ADE 4D09ED                  	or rFactCnt, rFactCnt
   964 00000AE1 740E                    	jz FacEnd0084
   965                                  FacRep0084:
   966 00000AE3 E85CF9FFFF              	call pHexChar
   967 00000AE8 49FFCD                  	dec rFactCnt
   968 00000AEB E304                    	jrcxz FacEnd0084
   969 00000AED 7402                    	jz FacEnd0084
   970 00000AEF EBF2                    	jmp FacRep0084
   971                                  FacEnd0084:
   972 00000AF1 E8(00000000)            	call cDrop
   973 00000AF6 4809C9                  	or rPOk, rPOk
   974 00000AF9 7502                    	jnz SD0085
   975 00000AFB EB12                    	jmp SDEnd0082
   976                                  SD0085:
   977 00000AFD 41FE07                  	inc byte [r15]
   978 00000B00 E8(00000000)            	call pOut
   979 00000B05 042C203078              	 dB 4, ", 0x"
   980 00000B0A E8(00000000)            	call pOutLI
   981                                  SDEnd0082:
   982 00000B0F E8(00000000)            	call cDrop
   983 00000B14 E307                    	jrcxz RSEnd0081
   984 00000B16 4D09F6                  	or rInEndFlg, rInEndFlg
   985 00000B19 7502                    	jnz RSEnd0081
   986 00000B1B EB97                    	jmp RSRep0081
   987                                  RSEnd0081:
   988 00000B1D 4831C9                  	xor rPOk, rPOk
   989 00000B20 48FFC1                  	inc rPOk
   990 00000B23 E8(00000000)            	call cDrop
   991 00000B28 4809C9                  	or rPOk, rPOk
   992 00000B2B 7502                    	jnz SD0086
   993 00000B2D EB0B                    	jmp SDEnd007A
   994                                  SD0086:
   995 00000B2F 4C89FF                  	mov rdi, r15
   996 00000B32 418A07                  	mov al, [r15]
   997 00000B35 E8(00000000)            	call Bin1Hex
   998                                  SDEnd007A:
   999 00000B3A E305                    	jrcxz DL0087
  1000 00000B3C E97C060000              	jmp DLEnd0068
  1001 00000B41 48FFC1                  DL0087:	inc rcx
  1002 00000B44 E8(00000000)            	call cTop
  1003 00000B49 E8(00000000)            	call pIn
  1004 00000B4E 015E                    	 db 0x0001, '^'
  1005 00000B50 4809C9                  	or rPOk, rPOk
  1006 00000B53 7505                    	jnz SD0088
  1007 00000B55 E9D1000000              	jmp SDEnd0088
  1008                                  SD0088:
  1009 00000B5A E8(00000000)            	call cPush
  1010                                  RSRep008A:
  1011 00000B5F E8(00000000)            	call cPush
  1012 00000B64 E8E9F5FFFF              	call pDigit
  1013 00000B69 E8(00000000)            	call cDrop
  1014 00000B6E E307                    	jrcxz RSEnd008A
  1015 00000B70 4D09F6                  	or rInEndFlg, rInEndFlg
  1016 00000B73 7502                    	jnz RSEnd008A
  1017 00000B75 EBE8                    	jmp RSRep008A
  1018                                  RSEnd008A:
  1019 00000B77 4831C9                  	xor rPOk, rPOk
  1020 00000B7A 48FFC1                  	inc rPOk
  1021 00000B7D E8(00000000)            	call cDrop
  1022 00000B82 4809C9                  	or rPOk, rPOk
  1023 00000B85 7505                    	jnz SD008B
  1024 00000B87 E99F000000              	jmp SDEnd0088
  1025                                  SD008B:
  1026 00000B8C E8(00000000)            	call pOut
  1027 00000B91 100A0963616C6C2070-     	 db 16, 10, 9, "call pInterval"
  1027 00000B9A 496E74657276616C   
  1028 00000BA2 E8(00000000)            	call pOut
  1029 00000BA7 060A0920646220          	 db 6, 10, 9, " db "
  1030 00000BAE E8(00000000)            	call pOutLI
  1031 00000BB3 E8(00000000)            	call pOut
  1032 00000BB8 022C20                  	 db 2, ", "
  1033 00000BBB 4809C9                  	or rPOk, rPOk
  1034 00000BBE 7502                    	jnz SD008C
  1035 00000BC0 EB69                    	jmp SDEnd0088
  1036                                  SD008C:
  1037 00000BC2 E81EFBFFFF              	call pS
  1038 00000BC7 4809C9                  	or rPOk, rPOk
  1039 00000BCA 7502                    	jnz SD008D
  1040 00000BCC EB5D                    	jmp SDEnd0088
  1041                                  SD008D:
  1042 00000BCE E8(00000000)            	call pIn
  1043 00000BD3 022E2E                  	 db 0x0002, '..'
  1044 00000BD6 4809C9                  	or rPOk, rPOk
  1045 00000BD9 7502                    	jnz SD008E
  1046 00000BDB EB4E                    	jmp SDEnd0088
  1047                                  SD008E:
  1048 00000BDD E803FBFFFF              	call pS
  1049 00000BE2 4809C9                  	or rPOk, rPOk
  1050 00000BE5 7502                    	jnz SD008F
  1051 00000BE7 EB42                    	jmp SDEnd0088
  1052                                  SD008F:
  1053 00000BE9 E8(00000000)            	call pIn
  1054 00000BEE 015E                    	 db 0x0001, '^'
  1055 00000BF0 4809C9                  	or rPOk, rPOk
  1056 00000BF3 7502                    	jnz SD0090
  1057 00000BF5 EB34                    	jmp SDEnd0088
  1058                                  SD0090:
  1059 00000BF7 E8(00000000)            	call cPush
  1060                                  RSRep0092:
  1061 00000BFC E8(00000000)            	call cPush
  1062 00000C01 E84CF5FFFF              	call pDigit
  1063 00000C06 E8(00000000)            	call cDrop
  1064 00000C0B E307                    	jrcxz RSEnd0092
  1065 00000C0D 4D09F6                  	or rInEndFlg, rInEndFlg
  1066 00000C10 7502                    	jnz RSEnd0092
  1067 00000C12 EBE8                    	jmp RSRep0092
  1068                                  RSEnd0092:
  1069 00000C14 4831C9                  	xor rPOk, rPOk
  1070 00000C17 48FFC1                  	inc rPOk
  1071 00000C1A E8(00000000)            	call cDrop
  1072 00000C1F 4809C9                  	or rPOk, rPOk
  1073 00000C22 7502                    	jnz SD0093
  1074 00000C24 EB05                    	jmp SDEnd0088
  1075                                  SD0093:
  1076 00000C26 E8(00000000)            	call pOutLI
  1077                                  SDEnd0088:
  1078 00000C2B E305                    	jrcxz DL0094
  1079 00000C2D E98B050000              	jmp DLEnd0068
  1080 00000C32 48FFC1                  DL0094:	inc rcx
  1081 00000C35 E8(00000000)            	call cTop
  1082 00000C3A E8(00000000)            	call pIn
  1083 00000C3F 015E                    	 db 0x0001, '^'
  1084 00000C41 4809C9                  	or rPOk, rPOk
  1085 00000C44 7502                    	jnz SD0095
  1086 00000C46 EB53                    	jmp SDEnd0095
  1087                                  SD0095:
  1088 00000C48 E8(00000000)            	call cPush
  1089                                  RSRep0097:
  1090 00000C4D E8(00000000)            	call cPush
  1091 00000C52 E8FBF4FFFF              	call pDigit
  1092 00000C57 E8(00000000)            	call cDrop
  1093 00000C5C E307                    	jrcxz RSEnd0097
  1094 00000C5E 4D09F6                  	or rInEndFlg, rInEndFlg
  1095 00000C61 7502                    	jnz RSEnd0097
  1096 00000C63 EBE8                    	jmp RSRep0097
  1097                                  RSEnd0097:
  1098 00000C65 4831C9                  	xor rPOk, rPOk
  1099 00000C68 48FFC1                  	inc rPOk
  1100 00000C6B E8(00000000)            	call cDrop
  1101 00000C70 4809C9                  	or rPOk, rPOk
  1102 00000C73 7502                    	jnz SD0098
  1103 00000C75 EB24                    	jmp SDEnd0095
  1104                                  SD0098:
  1105 00000C77 E8(00000000)            	call pOut
  1106 00000C7C 0A0A0963616C6C2070-     	 db 10, 10, 9, "call pIn"
  1106 00000C85 496E               
  1107 00000C87 E8(00000000)            	call pOut
  1108 00000C8C 090A0920646220312C-     	 db 9, 10, 9, " db 1, "
  1108 00000C95 20                 
  1109 00000C96 E8(00000000)            	call pOutLI
  1110                                  SDEnd0095:
  1111 00000C9B E305                    	jrcxz DL0099
  1112 00000C9D E91B050000              	jmp DLEnd0068
  1113 00000CA2 48FFC1                  DL0099:	inc rcx
  1114 00000CA5 E8(00000000)            	call cTop
  1115 00000CAA E8(00000000)            	call pIn
  1116 00000CAF 033E3E22                	 db 0x0003, '>>"'
  1117 00000CB3 4809C9                  	or rPOk, rPOk
  1118 00000CB6 7505                    	jnz SD009A
  1119 00000CB8 E98C000000              	jmp SDEnd009A
  1120                                  SD009A:
  1121 00000CBD E8(00000000)            	call cPush
  1122                                  RSRep009D:
  1123 00000CC2 E8(00000000)            	call cPush
  1124 00000CC7 E822F7FFFF              	call pCharacter
  1125 00000CCC E302                    	jrcxz DL009E
  1126 00000CCE EB0F                    	jmp DLEnd009E
  1127 00000CD0 48FFC1                  DL009E:	inc rcx
  1128 00000CD3 E8(00000000)            	call cTop
  1129 00000CD8 E8(00000000)            	call pIn
  1130 00000CDD 0127                    	 db 0x0001, "'"
  1131                                  DLEnd009E:
  1132 00000CDF E8(00000000)            	call cDrop
  1133 00000CE4 E307                    	jrcxz RSEnd009D
  1134 00000CE6 4D09F6                  	or rInEndFlg, rInEndFlg
  1135 00000CE9 7502                    	jnz RSEnd009D
  1136 00000CEB EBD5                    	jmp RSRep009D
  1137                                  RSEnd009D:
  1138 00000CED 4831C9                  	xor rPOk, rPOk
  1139 00000CF0 48FFC1                  	inc rPOk
  1140 00000CF3 E8(00000000)            	call cDrop
  1141 00000CF8 4809C9                  	or rPOk, rPOk
  1142 00000CFB 7502                    	jnz SD009F
  1143 00000CFD EB4A                    	jmp SDEnd009A
  1144                                  SD009F:
  1145 00000CFF E8(00000000)            	call pOut
  1146 00000D04 0E0A0963616C6C2070-     	 db 14, 10, 9, "call pFindIn"
  1146 00000D0D 46696E64496E       
  1147 00000D13 E8(00000000)            	call pOut
  1148 00000D18 080A09206462203078      	 db 8, 10, 9, " db 0x"
  1149 00000D21 E8(00000000)            	call pOutLILen
  1150 00000D26 E8(00000000)            	call pOut
  1151 00000D2B 032C2022                	 db  3, ', "'
  1152 00000D2F E8(00000000)            	call pOutLI
  1153 00000D34 E8(00000000)            	call pOut
  1154 00000D39 0122                     	 db 1, '"'
  1155 00000D3B 4809C9                  	or rPOk, rPOk
  1156 00000D3E 7502                    	jnz SD00A0
  1157 00000D40 EB07                    	jmp SDEnd009A
  1158                                  SD00A0:
  1159 00000D42 E8(00000000)            	call pIn
  1160 00000D47 0122                    	 db 1, 34
  1161                                  SDEnd009A:
  1162 00000D49 E305                    	jrcxz DL00A1
  1163 00000D4B E96D040000              	jmp DLEnd0068
  1164 00000D50 48FFC1                  DL00A1:	inc rcx
  1165 00000D53 E8(00000000)            	call cTop
  1166 00000D58 E8(00000000)            	call pIn
  1167 00000D5D 033E3E27                	 db 0x0003, ">>'"
  1168 00000D61 4809C9                  	or rPOk, rPOk
  1169 00000D64 7505                    	jnz SD00A2
  1170 00000D66 E98C000000              	jmp SDEnd00A2
  1171                                  SD00A2:
  1172 00000D6B E8(00000000)            	call cPush
  1173                                  RSRep00A5:
  1174 00000D70 E8(00000000)            	call cPush
  1175 00000D75 E874F6FFFF              	call pCharacter
  1176 00000D7A E302                    	jrcxz DL00A6
  1177 00000D7C EB0F                    	jmp DLEnd00A6
  1178 00000D7E 48FFC1                  DL00A6:	inc rcx
  1179 00000D81 E8(00000000)            	call cTop
  1180 00000D86 E8(00000000)            	call pIn
  1181 00000D8B 0122                    	 db 1, 34
  1182                                  DLEnd00A6:
  1183 00000D8D E8(00000000)            	call cDrop
  1184 00000D92 E307                    	jrcxz RSEnd00A5
  1185 00000D94 4D09F6                  	or rInEndFlg, rInEndFlg
  1186 00000D97 7502                    	jnz RSEnd00A5
  1187 00000D99 EBD5                    	jmp RSRep00A5
  1188                                  RSEnd00A5:
  1189 00000D9B 4831C9                  	xor rPOk, rPOk
  1190 00000D9E 48FFC1                  	inc rPOk
  1191 00000DA1 E8(00000000)            	call cDrop
  1192 00000DA6 4809C9                  	or rPOk, rPOk
  1193 00000DA9 7502                    	jnz SD00A7
  1194 00000DAB EB4A                    	jmp SDEnd00A2
  1195                                  SD00A7:
  1196 00000DAD E8(00000000)            	call pOut
  1197 00000DB2 0E0A0963616C6C2070-     	 db 14, 10, 9, "call pFindIn"
  1197 00000DBB 46696E64496E       
  1198 00000DC1 E8(00000000)            	call pOut
  1199 00000DC6 080A09206462203078      	 db 8, 10, 9, " db 0x"
  1200 00000DCF E8(00000000)            	call pOutLILen
  1201 00000DD4 E8(00000000)            	call pOut
  1202 00000DD9 032C2027                	 db  3, ", '"
  1203 00000DDD E8(00000000)            	call pOutLI
  1204 00000DE2 E8(00000000)            	call pOut
  1205 00000DE7 0127                     	 db 1, "'"
  1206 00000DE9 4809C9                  	or rPOk, rPOk
  1207 00000DEC 7502                    	jnz SD00A8
  1208 00000DEE EB07                    	jmp SDEnd00A2
  1209                                  SD00A8:
  1210 00000DF0 E8(00000000)            	call pIn
  1211 00000DF5 0127                    	 db 0x0001, "'"
  1212                                  SDEnd00A2:
  1213 00000DF7 E305                    	jrcxz DL00A9
  1214 00000DF9 E9BF030000              	jmp DLEnd0068
  1215 00000DFE 48FFC1                  DL00A9:	inc rcx
  1216 00000E01 E8(00000000)            	call cTop
  1217 00000E06 E8(00000000)            	call pIn
  1218 00000E0B 0127                    	 db 0x0001, "'"
  1219 00000E0D 4809C9                  	or rPOk, rPOk
  1220 00000E10 7502                    	jnz SD00AA
  1221 00000E12 EB3D                    	jmp SDEnd00AA
  1222                                  SD00AA:
  1223 00000E14 E8(00000000)            	call pIn
  1224 00000E19 0122                    	 db 1, 34
  1225 00000E1B 4809C9                  	or rPOk, rPOk
  1226 00000E1E 7502                    	jnz SD00AB
  1227 00000E20 EB2F                    	jmp SDEnd00AA
  1228                                  SD00AB:
  1229 00000E22 E8(00000000)            	call pIn
  1230 00000E27 0127                    	 db 0x0001, "'"
  1231 00000E29 4809C9                  	or rPOk, rPOk
  1232 00000E2C 7502                    	jnz SD00AC
  1233 00000E2E EB21                    	jmp SDEnd00AA
  1234                                  SD00AC:
  1235 00000E30 E8(00000000)            	call pOut
  1236 00000E35 0A0A0963616C6C2070-     	 db 10, 10, 9, "call pIn"
  1236 00000E3E 496E               
  1237 00000E40 E8(00000000)            	call pOut
  1238 00000E45 0B0A0920646220312C-     	 db 11, 10, 9, " db 1, 34"
  1238 00000E4E 203334             
  1239                                  SDEnd00AA:
  1240 00000E51 E305                    	jrcxz DL00AD
  1241 00000E53 E965030000              	jmp DLEnd0068
  1242 00000E58 48FFC1                  DL00AD:	inc rcx
  1243 00000E5B E8(00000000)            	call cTop
  1244 00000E60 E8(00000000)            	call pIn
  1245 00000E65 0127                    	 db 0x0001, "'"
  1246 00000E67 4809C9                  	or rPOk, rPOk
  1247 00000E6A 7505                    	jnz SD00AE
  1248 00000E6C E9EE000000              	jmp SDEnd00AE
  1249                                  SD00AE:
  1250 00000E71 E8(00000000)            	call cPush
  1251 00000E76 E873F5FFFF              	call pCharacter
  1252 00000E7B E302                    	jrcxz DL00AF
  1253 00000E7D EB0F                    	jmp DLEnd00AF
  1254 00000E7F 48FFC1                  DL00AF:	inc rcx
  1255 00000E82 E8(00000000)            	call cTop
  1256 00000E87 E8(00000000)            	call pIn
  1257 00000E8C 0122                    	 db 1, 34
  1258                                  DLEnd00AF:
  1259 00000E8E E8(00000000)            	call cDrop
  1260 00000E93 4809C9                  	or rPOk, rPOk
  1261 00000E96 7505                    	jnz SD00B0
  1262 00000E98 E9C2000000              	jmp SDEnd00AE
  1263                                  SD00B0:
  1264 00000E9D E8(00000000)            	call pOut
  1265 00000EA2 100A0963616C6C2070-     	 db 16, 10, 9, "call pInterval"
  1265 00000EAB 496E74657276616C   
  1266 00000EB3 E8(00000000)            	call pOut
  1267 00000EB8 070A092064622027        	 db 7, 10, 9, " db '"
  1268 00000EC0 E8(00000000)            	call pOutLI
  1269 00000EC5 E8(00000000)            	call pOut
  1270 00000ECA 04272C2027              	 db 4, "', '"
  1271 00000ECF 4809C9                  	or rPOk, rPOk
  1272 00000ED2 7505                    	jnz SD00B1
  1273 00000ED4 E986000000              	jmp SDEnd00AE
  1274                                  SD00B1:
  1275 00000ED9 E8(00000000)            	call pIn
  1276 00000EDE 0127                    	 db 0x0001, "'"
  1277 00000EE0 4809C9                  	or rPOk, rPOk
  1278 00000EE3 7502                    	jnz SD00B2
  1279 00000EE5 EB78                    	jmp SDEnd00AE
  1280                                  SD00B2:
  1281 00000EE7 E8F9F7FFFF              	call pS
  1282 00000EEC 4809C9                  	or rPOk, rPOk
  1283 00000EEF 7502                    	jnz SD00B3
  1284 00000EF1 EB6C                    	jmp SDEnd00AE
  1285                                  SD00B3:
  1286 00000EF3 E8(00000000)            	call pIn
  1287 00000EF8 022E2E                  	 db 0x0002, '..'
  1288 00000EFB 4809C9                  	or rPOk, rPOk
  1289 00000EFE 7502                    	jnz SD00B4
  1290 00000F00 EB5D                    	jmp SDEnd00AE
  1291                                  SD00B4:
  1292 00000F02 E8DEF7FFFF              	call pS
  1293 00000F07 4809C9                  	or rPOk, rPOk
  1294 00000F0A 7502                    	jnz SD00B5
  1295 00000F0C EB51                    	jmp SDEnd00AE
  1296                                  SD00B5:
  1297 00000F0E E8(00000000)            	call pIn
  1298 00000F13 0127                    	 db 0x0001, "'"
  1299 00000F15 4809C9                  	or rPOk, rPOk
  1300 00000F18 7502                    	jnz SD00B6
  1301 00000F1A EB43                    	jmp SDEnd00AE
  1302                                  SD00B6:
  1303 00000F1C E8(00000000)            	call cPush
  1304 00000F21 E8C8F4FFFF              	call pCharacter
  1305 00000F26 E302                    	jrcxz DL00B7
  1306 00000F28 EB0F                    	jmp DLEnd00B7
  1307 00000F2A 48FFC1                  DL00B7:	inc rcx
  1308 00000F2D E8(00000000)            	call cTop
  1309 00000F32 E8(00000000)            	call pIn
  1310 00000F37 0122                    	 db 1, 34
  1311                                  DLEnd00B7:
  1312 00000F39 E8(00000000)            	call cDrop
  1313 00000F3E 4809C9                  	or rPOk, rPOk
  1314 00000F41 7502                    	jnz SD00B8
  1315 00000F43 EB1A                    	jmp SDEnd00AE
  1316                                  SD00B8:
  1317 00000F45 E8(00000000)            	call pOutLI
  1318 00000F4A E8(00000000)            	call pOut
  1319 00000F4F 0127                    	 db 1, "'"
  1320 00000F51 4809C9                  	or rPOk, rPOk
  1321 00000F54 7502                    	jnz SD00B9
  1322 00000F56 EB07                    	jmp SDEnd00AE
  1323                                  SD00B9:
  1324 00000F58 E8(00000000)            	call pIn
  1325 00000F5D 0127                    	 db 0x0001, "'"
  1326                                  SDEnd00AE:
  1327 00000F5F E305                    	jrcxz DL00BA
  1328 00000F61 E957020000              	jmp DLEnd0068
  1329 00000F66 48FFC1                  DL00BA:	inc rcx
  1330 00000F69 E8(00000000)            	call cTop
  1331 00000F6E E8(00000000)            	call pIn
  1332 00000F73 0127                    	 db 0x0001, "'"
  1333 00000F75 4809C9                  	or rPOk, rPOk
  1334 00000F78 7505                    	jnz SD00BB
  1335 00000F7A E988000000              	jmp SDEnd00BB
  1336                                  SD00BB:
  1337 00000F7F E8(00000000)            	call cPush
  1338                                  RSRep00BE:
  1339 00000F84 E8(00000000)            	call cPush
  1340 00000F89 E860F4FFFF              	call pCharacter
  1341 00000F8E E302                    	jrcxz DL00BF
  1342 00000F90 EB0F                    	jmp DLEnd00BF
  1343 00000F92 48FFC1                  DL00BF:	inc rcx
  1344 00000F95 E8(00000000)            	call cTop
  1345 00000F9A E8(00000000)            	call pIn
  1346 00000F9F 0122                    	 db 1, 34
  1347                                  DLEnd00BF:
  1348 00000FA1 E8(00000000)            	call cDrop
  1349 00000FA6 E307                    	jrcxz RSEnd00BE
  1350 00000FA8 4D09F6                  	or rInEndFlg, rInEndFlg
  1351 00000FAB 7502                    	jnz RSEnd00BE
  1352 00000FAD EBD5                    	jmp RSRep00BE
  1353                                  RSEnd00BE:
  1354 00000FAF 4831C9                  	xor rPOk, rPOk
  1355 00000FB2 48FFC1                  	inc rPOk
  1356 00000FB5 E8(00000000)            	call cDrop
  1357 00000FBA 4809C9                  	or rPOk, rPOk
  1358 00000FBD 7502                    	jnz SD00C0
  1359 00000FBF EB46                    	jmp SDEnd00BB
  1360                                  SD00C0:
  1361 00000FC1 E8(00000000)            	call pOut
  1362 00000FC6 0A0A0963616C6C2070-     	 db 10, 10, 9, "call pIn"
  1362 00000FCF 496E               
  1363 00000FD1 E8(00000000)            	call pOut
  1364 00000FD6 080A09206462203078      	 db 8, 10, 9, " db 0x"
  1365 00000FDF E8(00000000)            	call pOutLILen
  1366 00000FE4 E8(00000000)            	call pOut
  1367 00000FE9 032C2027                	 db 3, ", '"
  1368 00000FED E8(00000000)            	call pOutLI
  1369 00000FF2 E8(00000000)            	call pOut
  1370 00000FF7 0127                    	 db 1, "'"
  1371 00000FF9 4809C9                  	or rPOk, rPOk
  1372 00000FFC 7502                    	jnz SD00C1
  1373 00000FFE EB07                    	jmp SDEnd00BB
  1374                                  SD00C1:
  1375 00001000 E8(00000000)            	call pIn
  1376 00001005 0127                    	 db 0x0001, "'"
  1377                                  SDEnd00BB:
  1378 00001007 E305                    	jrcxz DL00C2
  1379 00001009 E9AF010000              	jmp DLEnd0068
  1380 0000100E 48FFC1                  DL00C2:	inc rcx
  1381 00001011 E8(00000000)            	call cTop
  1382 00001016 E8(00000000)            	call pIn
  1383 0000101B 0122                    	 db 1, 34
  1384 0000101D 4809C9                  	or rPOk, rPOk
  1385 00001020 7505                    	jnz SD00C3
  1386 00001022 E9EE000000              	jmp SDEnd00C3
  1387                                  SD00C3:
  1388 00001027 E8(00000000)            	call cPush
  1389 0000102C E8BDF3FFFF              	call pCharacter
  1390 00001031 E302                    	jrcxz DL00C4
  1391 00001033 EB0F                    	jmp DLEnd00C4
  1392 00001035 48FFC1                  DL00C4:	inc rcx
  1393 00001038 E8(00000000)            	call cTop
  1394 0000103D E8(00000000)            	call pIn
  1395 00001042 0127                    	 db 0x0001, "'"
  1396                                  DLEnd00C4:
  1397 00001044 E8(00000000)            	call cDrop
  1398 00001049 4809C9                  	or rPOk, rPOk
  1399 0000104C 7505                    	jnz SD00C5
  1400 0000104E E9C2000000              	jmp SDEnd00C3
  1401                                  SD00C5:
  1402 00001053 E8(00000000)            	call pOut
  1403 00001058 100A0963616C6C2070-     	 db 16, 10, 9, "call pInterval"
  1403 00001061 496E74657276616C   
  1404 00001069 E8(00000000)            	call pOut
  1405 0000106E 070A092064622022        	 db 7, 10, 9, ' db "'
  1406 00001076 E8(00000000)            	call pOutLI
  1407 0000107B E8(00000000)            	call pOut
  1408 00001080 04222C2022              	 db 4, '", "'
  1409 00001085 4809C9                  	or rPOk, rPOk
  1410 00001088 7505                    	jnz SD00C6
  1411 0000108A E986000000              	jmp SDEnd00C3
  1412                                  SD00C6:
  1413 0000108F E8(00000000)            	call pIn
  1414 00001094 0122                    	 db 1, 34
  1415 00001096 4809C9                  	or rPOk, rPOk
  1416 00001099 7502                    	jnz SD00C7
  1417 0000109B EB78                    	jmp SDEnd00C3
  1418                                  SD00C7:
  1419 0000109D E843F6FFFF              	call pS
  1420 000010A2 4809C9                  	or rPOk, rPOk
  1421 000010A5 7502                    	jnz SD00C8
  1422 000010A7 EB6C                    	jmp SDEnd00C3
  1423                                  SD00C8:
  1424 000010A9 E8(00000000)            	call pIn
  1425 000010AE 022E2E                  	 db 0x0002, '..'
  1426 000010B1 4809C9                  	or rPOk, rPOk
  1427 000010B4 7502                    	jnz SD00C9
  1428 000010B6 EB5D                    	jmp SDEnd00C3
  1429                                  SD00C9:
  1430 000010B8 E828F6FFFF              	call pS
  1431 000010BD 4809C9                  	or rPOk, rPOk
  1432 000010C0 7502                    	jnz SD00CA
  1433 000010C2 EB51                    	jmp SDEnd00C3
  1434                                  SD00CA:
  1435 000010C4 E8(00000000)            	call pIn
  1436 000010C9 0122                    	 db 1, 34
  1437 000010CB 4809C9                  	or rPOk, rPOk
  1438 000010CE 7502                    	jnz SD00CB
  1439 000010D0 EB43                    	jmp SDEnd00C3
  1440                                  SD00CB:
  1441 000010D2 E8(00000000)            	call cPush
  1442 000010D7 E812F3FFFF              	call pCharacter
  1443 000010DC E302                    	jrcxz DL00CC
  1444 000010DE EB0F                    	jmp DLEnd00CC
  1445 000010E0 48FFC1                  DL00CC:	inc rcx
  1446 000010E3 E8(00000000)            	call cTop
  1447 000010E8 E8(00000000)            	call pIn
  1448 000010ED 0127                    	 db 0x0001, "'"
  1449                                  DLEnd00CC:
  1450 000010EF E8(00000000)            	call cDrop
  1451 000010F4 4809C9                  	or rPOk, rPOk
  1452 000010F7 7502                    	jnz SD00CD
  1453 000010F9 EB1A                    	jmp SDEnd00C3
  1454                                  SD00CD:
  1455 000010FB E8(00000000)            	call pOutLI
  1456 00001100 E8(00000000)            	call pOut
  1457 00001105 0122                    	 db 1, '"'
  1458 00001107 4809C9                  	or rPOk, rPOk
  1459 0000110A 7502                    	jnz SD00CE
  1460 0000110C EB07                    	jmp SDEnd00C3
  1461                                  SD00CE:
  1462 0000110E E8(00000000)            	call pIn
  1463 00001113 0122                    	 db 1, 34
  1464                                  SDEnd00C3:
  1465 00001115 E305                    	jrcxz DL00CF
  1466 00001117 E9A1000000              	jmp DLEnd0068
  1467 0000111C 48FFC1                  DL00CF:	inc rcx
  1468 0000111F E8(00000000)            	call cTop
  1469 00001124 E8(00000000)            	call pIn
  1470 00001129 0122                    	 db 1, 34
  1471 0000112B 4809C9                  	or rPOk, rPOk
  1472 0000112E 7505                    	jnz SD00D0
  1473 00001130 E988000000              	jmp SDEnd00D0
  1474                                  SD00D0:
  1475 00001135 E8(00000000)            	call cPush
  1476                                  RSRep00D3:
  1477 0000113A E8(00000000)            	call cPush
  1478 0000113F E8AAF2FFFF              	call pCharacter
  1479 00001144 E302                    	jrcxz DL00D4
  1480 00001146 EB0F                    	jmp DLEnd00D4
  1481 00001148 48FFC1                  DL00D4:	inc rcx
  1482 0000114B E8(00000000)            	call cTop
  1483 00001150 E8(00000000)            	call pIn
  1484 00001155 0127                    	 db 0x0001, "'"
  1485                                  DLEnd00D4:
  1486 00001157 E8(00000000)            	call cDrop
  1487 0000115C E307                    	jrcxz RSEnd00D3
  1488 0000115E 4D09F6                  	or rInEndFlg, rInEndFlg
  1489 00001161 7502                    	jnz RSEnd00D3
  1490 00001163 EBD5                    	jmp RSRep00D3
  1491                                  RSEnd00D3:
  1492 00001165 4831C9                  	xor rPOk, rPOk
  1493 00001168 48FFC1                  	inc rPOk
  1494 0000116B E8(00000000)            	call cDrop
  1495 00001170 4809C9                  	or rPOk, rPOk
  1496 00001173 7502                    	jnz SD00D5
  1497 00001175 EB46                    	jmp SDEnd00D0
  1498                                  SD00D5:
  1499 00001177 E8(00000000)            	call pOut
  1500 0000117C 0A0A0963616C6C2070-     	 db 10, 10, 9, "call pIn"
  1500 00001185 496E               
  1501 00001187 E8(00000000)            	call pOut
  1502 0000118C 080A09206462203078      	 db 8, 10, 9, " db 0x"
  1503 00001195 E8(00000000)            	call pOutLILen
  1504 0000119A E8(00000000)            	call pOut
  1505 0000119F 032C2022                	 db 3, ", ", 34
  1506 000011A3 E8(00000000)            	call pOutLI
  1507 000011A8 E8(00000000)            	call pOut
  1508 000011AD 0122                    	 db 1, 34
  1509 000011AF 4809C9                  	or rPOk, rPOk
  1510 000011B2 7502                    	jnz SD00D6
  1511 000011B4 EB07                    	jmp SDEnd00D0
  1512                                  SD00D6:
  1513 000011B6 E8(00000000)            	call pIn
  1514 000011BB 0122                    	 db 1, 34
  1515                                  SDEnd00D0:
  1516                                  DLEnd0068:
  1517 000011BD E8(00000000)            	call cDrop
  1518                                  SDEnd005D:
  1519 000011C2 E8(00000000)            	call cDrop
  1520 000011C7 C3                      	ret
  1521                                  
  1522                                  ;pTerminal	= pS,
  1523                                  ;		(('0x', 16*pHexChar)						,
  1524                                  ;										<.	call pOut.>
  1525                                  ;										<.	 db 20, 10, 9, "call pIntervalQuad".>	
  1526                                  ;										<.	call pOut.>
  1527                                  ;										<.	 db 6, 10, 9, ' dq '.>
  1528                                  ;										<.	call pOutLI.>
  1529                                  ;				    , pS,'..', pS, ('0x', 16*pHexChar) 		,
  1530                                  ;				    						<.	call pOut.>
  1531                                  ;										<.	 db 6, 10, 9, ' dq '.>
  1532                                  ;										<.	call pOutLI.>			
  1533                                  ;		|('0x', 16*pHexChar)						,
  1534                                  ;										<.	call pOut.>
  1535                                  ;										<.	 db 10, 10, 9, "call pIn".>	
  1536                                  ;										<.	call pOut.>
  1537                                  ;										<.	 db 13, 10, 9, ' db 8', 10, 9, ' dq '.>
  1538                                  ;										<.	call pOutLI.>
  1539                                  ;		|('0x', 2*pHexChar)						,
  1540                                  ;										<.	call pOut.>
  1541                                  ;										<.	 db 16, 10, 9, "call pInterval".>
  1542                                  ;										<.	call pOut.>
  1543                                  ;										<.	 db 6, 10, 9, " db ".>
  1544                                  ;										<.	call pOutLI.>
  1545                                  ;										<.	call pOut.>
  1546                                  ;										<.	 db 2, ", ".>
  1547                                  ;			       , pS,'..', pS, ('0x', 2*pHexChar)		,
  1548                                  ;			      	     						<.	call pOutLI.>
  1549                                  ;		| ("0x", 2*pHexChar)						,
  1550                                  ;										<.	call pOut.>
  1551                                  ;										<.	 db 10, 10, 9, "call pIn".>
  1552                                  ;		      								<.	call pOut.>
  1553                                  ;							     			<.	 db 8, 10, 9, " db 0x".>
  1554                                  ;		 								<.	mov r15, rOutPnt.>
  1555                                  ;		      								<.	call pOut.>
  1556                                  ;							     			<.	 db 4, 1, 0, ", ".>
  1557                                  ;							     			<.	call pOutLI.>
  1558                                  ;			,{" ", pS, (2*pHexChar)					,
  1559                                  ;										<.	inc byte [r15].>
  1560                                  ;										<.	call pOut.>
  1561                                  ;										<.	 dB 4, ", 0x".>
  1562                                  ;										<.	call pOutLI.>
  1563                                  ;			      			 }				,
  1564                                  ;				 						<.	mov rdi, r15.>
  1565                                  ;			        						<.	mov al, [r15].>
  1566                                  ;			        						<.	call Bin1Hex.>
  1567                                  ;
  1568                                  ;		|'^', {pDigit}							,
  1569                                  ;										<.	call pOut.>
  1570                                  ;										<.	 db 16, 10, 9, "call pInterval".>
  1571                                  ;										<.	call pOut.>
  1572                                  ;										<.	 db 6, 10, 9, " db ".>
  1573                                  ;										<.	call pOutLI.>
  1574                                  ;										<.	call pOut.>
  1575                                  ;										<.	 db 2, ", ".>
  1576                                  ;			       , pS,'..', pS, '^', {pDigit}			,
  1577                                  ;			      	     						<.	call pOutLI.>
  1578                                  ;		|'^', {pDigit} 							,
  1579                                  ;										<.	call pOut.>
  1580                                  ;										<.	 db 10, 10, 9, "call pIn".>
  1581                                  ;										<.	call pOut.>
  1582                                  ;										<.	 db 9, 10, 9, " db 1, ".>
  1583                                  ;										<.	call pOutLI.>
  1584                                  ;		|'>>"', {pCharacter| "'"}					,
  1585                                  ;										<.	call pOut.>
  1586                                  ;										<.	 db 14, 10, 9, "call pFindIn".>
  1587                                  ;										<.	call pOut.>
  1588                                  ;										<.	 db 8, 10, 9, " db 0x".>
  1589                                  ;										<.	call pOutLILen.>
  1590                                  ;										<.	call pOut.>
  1591                                  ;										<.	 db  3, ', "'.>
  1592                                  ;										<.	call pOutLI.>
  1593                                  ;										<.	call pOut.>
  1594                                  ;										<. 	 db 1, '"'.>,
  1595                                  ;			     		 '"'
  1596                                  ;		|">>'", {pCharacter| '"'},					<.	call pOut.>
  1597                                  ;										<.	 db 14, 10, 9, "call pFindIn".>
  1598                                  ;										<.	call pOut.>
  1599                                  ;										<.	 db 8, 10, 9, " db 0x".>
  1600                                  ;										<.	call pOutLILen.>
  1601                                  ;										<.	call pOut.>
  1602                                  ;										<.	 db  3, ", '".>
  1603                                  ;										<.	call pOutLI.>
  1604                                  ;										<.	call pOut.>
  1605                                  ;										<. 	 db 1, "'".>,
  1606                                  ;			     		 "'"
  1607                                  ;		|"'" ,'"' ,"'",							<.	call pOut.>
  1608                                  ;										<.	 db 10, 10, 9, "call pIn".>
  1609                                  ;										<.	call pOut.>
  1610                                  ;										<.	 db 11, 10, 9, " db 1, 34".>
  1611                                  ;										
  1612                                  ;		|"'", (pCharacter| '"'),					<.	call pOut.>
  1613                                  ;										<.	 db 16, 10, 9, "call pInterval".>
  1614                                  ;										<.	call pOut.>
  1615                                  ;										<.	 db 7, 10, 9, " db '".>
  1616                                  ;										<.	call pOutLI.>
  1617                                  ;										<.	call pOut.>
  1618                                  ;										<.	 db 4, "', '".>,
  1619                                  ;		  		"'", pS, '..', pS, "'", (pCharacter|'"'),	<.	call pOutLI.>
  1620                                  ;										<.	call pOut.>
  1621                                  ;										<.	 db 1, "'".>,
  1622                                  ;									 "'"
  1623                                  ;		|"'", {pCharacter| '"'},					<.	call pOut.>
  1624                                  ;										<.	 db 10, 10, 9, "call pIn".>
  1625                                  ;										<.	call pOut.>
  1626                                  ;										<.	 db 8, 10, 9, " db 0x".>
  1627                                  ;										<.	call pOutLILen.>
  1628                                  ;										<.	call pOut.>
  1629                                  ;										<.	 db 3, ", '".>
  1630                                  ;										<.	call pOutLI.>
  1631                                  ;										<.	call pOut.>
  1632                                  ;										<.	 db 1, "'".>,						
  1633                                  ;					"'"
  1634                                  ;		|'"', (pCharacter| "'"),					<.	call pOut.>
  1635                                  ;										<.	 db 16, 10, 9, "call pInterval".>
  1636                                  ;										<.	call pOut.>
  1637                                  ;										<.	 db 7, 10, 9, ' db "'.>
  1638                                  ;										<.	call pOutLI.>
  1639                                  ;										<.	call pOut.>
  1640                                  ;										<.	 db 4, '", "'.>,
  1641                                  ;		  		'"', pS, '..', pS, '"', (pCharacter|"'"),	<.	call pOutLI.>
  1642                                  ;										<.	call pOut.>
  1643                                  ;										<.	 db 1, '"'.>,
  1644                                  ;							    		 '"'
  1645                                  ;	 	|'"', {pCharacter| "'"},					<.	call pOut.>
  1646                                  ;										<.	 db 10, 10, 9, "call pIn".>
  1647                                  ;										<.	call pOut.>
  1648                                  ;										<.	 db 8, 10, 9, " db 0x".>
  1649                                  ;										<.	call pOutLILen.>
  1650                                  ;										<.	call pOut.>
  1651                                  ;										<.	 db 3, ", ", 34.>
  1652                                  ;										<.	call pOutLI.>
  1653                                  ;										<.	call pOut.>
  1654                                  ;										<.	 db 1, 34.>,
  1655                                  ;					 '"' );
  1656                                  ;
  1657                                  
  1658                                  ;xxxxxxxxxxxxxxxxxxxxxxxxxxxxxxxxxxxxxxxxxxxxxxxxxxxxxxxxxxxxxxxxxxxxxxxxxxxxxx
  1659                                  pArgument:
  1660 000011C8 E8(00000000)            	call cPush
  1661 000011CD E8(00000000)            	call pOut
  1662 000011D2 080A09206462203078      	db 8, 10, 9, " db 0x"
  1663 000011DB 4D89D7                  	mov r15, rOutPnt
  1664 000011DE E8(00000000)            	call pOut
  1665 000011E3 0400002C20              	 db 4, 0, 0, ", "
  1666 000011E8 4809C9                  	or rPOk, rPOk
  1667 000011EB 7505                    	jnz SD00D7
  1668 000011ED E91B030000              	jmp SDEnd00D7
  1669                                  SD00D7:
  1670 000011F2 E8(00000000)            	call cPush
  1671 000011F7 E8(00000000)            	call cPush
  1672 000011FC E8(00000000)            	call pIn
  1673 00001201 0127                    	 db 0x0001, "'"
  1674 00001203 4809C9                  	or rPOk, rPOk
  1675 00001206 7502                    	jnz SD00D8
  1676 00001208 EB5D                    	jmp SDEnd00D8
  1677                                  SD00D8:
  1678 0000120A E8(00000000)            	call cPush
  1679                                  RSRep00DC:
  1680 0000120F E8(00000000)            	call cPush
  1681 00001214 E8(00000000)            	call pInterval
  1682 00001219 00FF                    	 db 0, 255
  1683 0000121B 4809C9                  	or rPOk, rPOk
  1684 0000121E 7502                    	jnz ExChk00DD
  1685 00001220 EB14                    	jmp ExEnd00DD
  1686                                  ExChk00DD:
  1687 00001222 E8(00000000)            	call cPush
  1688 00001227 4D29E0                  	sub rInPnt, rLastInLen
  1689 0000122A E8(00000000)            	call pIn
  1690 0000122F 0127                    	 db 0x0001, "'"
  1691 00001231 E8(00000000)            	call cDropExcept
  1692                                  ExEnd00DD:
  1693 00001236 4809C9                  	or rPOk, rPOk
  1694 00001239 7502                    	jnz SD00DE
  1695 0000123B EB03                    	jmp SDEnd00DE
  1696                                  SD00DE:
  1697 0000123D 41FE07                  	inc byte [r15]
  1698                                  SDEnd00DE:
  1699 00001240 E8(00000000)            	call cDrop
  1700 00001245 E307                    	jrcxz RSEnd00DC
  1701 00001247 4D09F6                  	or rInEndFlg, rInEndFlg
  1702 0000124A 7502                    	jnz RSEnd00DC
  1703 0000124C EBC1                    	jmp RSRep00DC
  1704                                  RSEnd00DC:
  1705 0000124E 4831C9                  	xor rPOk, rPOk
  1706 00001251 48FFC1                  	inc rPOk
  1707 00001254 E8(00000000)            	call cDrop
  1708 00001259 4809C9                  	or rPOk, rPOk
  1709 0000125C 7502                    	jnz SD00DF
  1710 0000125E EB07                    	jmp SDEnd00D8
  1711                                  SD00DF:
  1712 00001260 E8(00000000)            	call pIn
  1713 00001265 0127                    	 db 0x0001, "'"
  1714                                  SDEnd00D8:
  1715 00001267 E8(00000000)            	call cDrop
  1716 0000126C E305                    	jrcxz DL00E0
  1717 0000126E E9C5000000              	jmp DLEnd00E0
  1718 00001273 48FFC1                  DL00E0:	inc rcx
  1719 00001276 E8(00000000)            	call cTop
  1720 0000127B E8(00000000)            	call cPush
  1721 00001280 E8(00000000)            	call pIn
  1722 00001285 0122                    	 db 1, 34
  1723 00001287 4809C9                  	or rPOk, rPOk
  1724 0000128A 7502                    	jnz SD00E1
  1725 0000128C EB5D                    	jmp SDEnd00E1
  1726                                  SD00E1:
  1727 0000128E E8(00000000)            	call cPush
  1728                                  RSRep00E5:
  1729 00001293 E8(00000000)            	call cPush
  1730 00001298 E8(00000000)            	call pInterval
  1731 0000129D 00FF                    	 db 0, 255
  1732 0000129F 4809C9                  	or rPOk, rPOk
  1733 000012A2 7502                    	jnz ExChk00E6
  1734 000012A4 EB14                    	jmp ExEnd00E6
  1735                                  ExChk00E6:
  1736 000012A6 E8(00000000)            	call cPush
  1737 000012AB 4D29E0                  	sub rInPnt, rLastInLen
  1738 000012AE E8(00000000)            	call pIn
  1739 000012B3 0122                    	 db 1, 34
  1740 000012B5 E8(00000000)            	call cDropExcept
  1741                                  ExEnd00E6:
  1742 000012BA 4809C9                  	or rPOk, rPOk
  1743 000012BD 7502                    	jnz SD00E7
  1744 000012BF EB03                    	jmp SDEnd00E7
  1745                                  SD00E7:
  1746 000012C1 41FE07                  	inc byte [r15]
  1747                                  SDEnd00E7:
  1748 000012C4 E8(00000000)            	call cDrop
  1749 000012C9 E307                    	jrcxz RSEnd00E5
  1750 000012CB 4D09F6                  	or rInEndFlg, rInEndFlg
  1751 000012CE 7502                    	jnz RSEnd00E5
  1752 000012D0 EBC1                    	jmp RSRep00E5
  1753                                  RSEnd00E5:
  1754 000012D2 4831C9                  	xor rPOk, rPOk
  1755 000012D5 48FFC1                  	inc rPOk
  1756 000012D8 E8(00000000)            	call cDrop
  1757 000012DD 4809C9                  	or rPOk, rPOk
  1758 000012E0 7502                    	jnz SD00E8
  1759 000012E2 EB07                    	jmp SDEnd00E1
  1760                                  SD00E8:
  1761 000012E4 E8(00000000)            	call pIn
  1762 000012E9 0122                    	 db 1, 34
  1763                                  SDEnd00E1:
  1764 000012EB E8(00000000)            	call cDrop
  1765 000012F0 E302                    	jrcxz DL00E9
  1766 000012F2 EB44                    	jmp DLEnd00E0
  1767 000012F4 48FFC1                  DL00E9:	inc rcx
  1768 000012F7 E8(00000000)            	call cTop
  1769 000012FC E8(00000000)            	call cPush
  1770 00001301 E8(00000000)            	call pIn
  1771 00001306 023078                  	 db 0x0002, "0x"
  1772 00001309 4809C9                  	or rPOk, rPOk
  1773 0000130C 7502                    	jnz SD00EA
  1774 0000130E EB19                    	jmp SDEnd00EA
  1775                                  SD00EA:
  1776 00001310 41BD02000000            	mov rFactCnt, 2
  1777 00001316 4D09ED                  	or rFactCnt, rFactCnt
  1778 00001319 740E                    	jz FacEnd00EB
  1779                                  FacRep00EB:
  1780 0000131B E824F1FFFF              	call pHexChar
  1781 00001320 49FFCD                  	dec rFactCnt
  1782 00001323 E304                    	jrcxz FacEnd00EB
  1783 00001325 7402                    	jz FacEnd00EB
  1784 00001327 EBF2                    	jmp FacRep00EB
  1785                                  FacEnd00EB:
  1786                                  SDEnd00EA:
  1787 00001329 E8(00000000)            	call cDrop
  1788 0000132E 4809C9                  	or rPOk, rPOk
  1789 00001331 7502                    	jnz SD00EC
  1790 00001333 EB03                    	jmp SDEnd00EC
  1791                                  SD00EC:
  1792 00001335 41FE07                  	inc byte [r15]
  1793                                  SDEnd00EC:
  1794                                  DLEnd00E0:
  1795 00001338 E8(00000000)            	call cDrop
  1796 0000133D 4809C9                  	or rPOk, rPOk
  1797 00001340 7505                    	jnz SD00ED
  1798 00001342 E9C6010000              	jmp SDEnd00D7
  1799                                  SD00ED:
  1800 00001347 E8(00000000)            	call pOutLI
  1801 0000134C 4809C9                  	or rPOk, rPOk
  1802 0000134F 7505                    	jnz SD00EE
  1803 00001351 E9B7010000              	jmp SDEnd00D7
  1804                                  SD00EE:
  1805 00001356 E8(00000000)            	call cPush
  1806                                  RSRep0108:
  1807 0000135B E8(00000000)            	call cPush
  1808 00001360 E880F3FFFF              	call pS
  1809 00001365 4809C9                  	or rPOk, rPOk
  1810 00001368 7505                    	jnz SD0109
  1811 0000136A E96B010000              	jmp SDEnd0109
  1812                                  SD0109:
  1813 0000136F E8(00000000)            	call pIn
  1814 00001374 012C                    	 db 0x0001, ","
  1815 00001376 4809C9                  	or rPOk, rPOk
  1816 00001379 7505                    	jnz SD010A
  1817 0000137B E95A010000              	jmp SDEnd0109
  1818                                  SD010A:
  1819 00001380 E860F3FFFF              	call pS
  1820 00001385 4809C9                  	or rPOk, rPOk
  1821 00001388 7505                    	jnz SD010B
  1822 0000138A E94B010000              	jmp SDEnd0109
  1823                                  SD010B:
  1824 0000138F E8(00000000)            	call cPush
  1825 00001394 E8(00000000)            	call cPush
  1826 00001399 E8(00000000)            	call pIn
  1827 0000139E 0127                    	 db 0x0001, "'"
  1828 000013A0 4809C9                  	or rPOk, rPOk
  1829 000013A3 7502                    	jnz SD010C
  1830 000013A5 EB5D                    	jmp SDEnd010C
  1831                                  SD010C:
  1832 000013A7 E8(00000000)            	call cPush
  1833                                  RSRep0110:
  1834 000013AC E8(00000000)            	call cPush
  1835 000013B1 E8(00000000)            	call pInterval
  1836 000013B6 00FF                    	 db 0, 255
  1837 000013B8 4809C9                  	or rPOk, rPOk
  1838 000013BB 7502                    	jnz ExChk0111
  1839 000013BD EB14                    	jmp ExEnd0111
  1840                                  ExChk0111:
  1841 000013BF E8(00000000)            	call cPush
  1842 000013C4 4D29E0                  	sub rInPnt, rLastInLen
  1843 000013C7 E8(00000000)            	call pIn
  1844 000013CC 0127                    	 db 0x0001, "'"
  1845 000013CE E8(00000000)            	call cDropExcept
  1846                                  ExEnd0111:
  1847 000013D3 4809C9                  	or rPOk, rPOk
  1848 000013D6 7502                    	jnz SD0112
  1849 000013D8 EB03                    	jmp SDEnd0112
  1850                                  SD0112:
  1851 000013DA 41FE07                  	inc byte [r15]
  1852                                  SDEnd0112:
  1853 000013DD E8(00000000)            	call cDrop
  1854 000013E2 E307                    	jrcxz RSEnd0110
  1855 000013E4 4D09F6                  	or rInEndFlg, rInEndFlg
  1856 000013E7 7502                    	jnz RSEnd0110
  1857 000013E9 EBC1                    	jmp RSRep0110
  1858                                  RSEnd0110:
  1859 000013EB 4831C9                  	xor rPOk, rPOk
  1860 000013EE 48FFC1                  	inc rPOk
  1861 000013F1 E8(00000000)            	call cDrop
  1862 000013F6 4809C9                  	or rPOk, rPOk
  1863 000013F9 7502                    	jnz SD0113
  1864 000013FB EB07                    	jmp SDEnd010C
  1865                                  SD0113:
  1866 000013FD E8(00000000)            	call pIn
  1867 00001402 0127                    	 db 0x0001, "'"
  1868                                  SDEnd010C:
  1869 00001404 E8(00000000)            	call cDrop
  1870 00001409 E305                    	jrcxz DL0114
  1871 0000140B E9C5000000              	jmp DLEnd0114
  1872 00001410 48FFC1                  DL0114:	inc rcx
  1873 00001413 E8(00000000)            	call cTop
  1874 00001418 E8(00000000)            	call cPush
  1875 0000141D E8(00000000)            	call pIn
  1876 00001422 0122                    	 db 1, 34
  1877 00001424 4809C9                  	or rPOk, rPOk
  1878 00001427 7502                    	jnz SD0115
  1879 00001429 EB5D                    	jmp SDEnd0115
  1880                                  SD0115:
  1881 0000142B E8(00000000)            	call cPush
  1882                                  RSRep0119:
  1883 00001430 E8(00000000)            	call cPush
  1884 00001435 E8(00000000)            	call pInterval
  1885 0000143A 00FF                    	 db 0, 255
  1886 0000143C 4809C9                  	or rPOk, rPOk
  1887 0000143F 7502                    	jnz ExChk011A
  1888 00001441 EB14                    	jmp ExEnd011A
  1889                                  ExChk011A:
  1890 00001443 E8(00000000)            	call cPush
  1891 00001448 4D29E0                  	sub rInPnt, rLastInLen
  1892 0000144B E8(00000000)            	call pIn
  1893 00001450 0122                    	 db 1, 34
  1894 00001452 E8(00000000)            	call cDropExcept
  1895                                  ExEnd011A:
  1896 00001457 4809C9                  	or rPOk, rPOk
  1897 0000145A 7502                    	jnz SD011B
  1898 0000145C EB03                    	jmp SDEnd011B
  1899                                  SD011B:
  1900 0000145E 41FE07                  	inc byte [r15]
  1901                                  SDEnd011B:
  1902 00001461 E8(00000000)            	call cDrop
  1903 00001466 E307                    	jrcxz RSEnd0119
  1904 00001468 4D09F6                  	or rInEndFlg, rInEndFlg
  1905 0000146B 7502                    	jnz RSEnd0119
  1906 0000146D EBC1                    	jmp RSRep0119
  1907                                  RSEnd0119:
  1908 0000146F 4831C9                  	xor rPOk, rPOk
  1909 00001472 48FFC1                  	inc rPOk
  1910 00001475 E8(00000000)            	call cDrop
  1911 0000147A 4809C9                  	or rPOk, rPOk
  1912 0000147D 7502                    	jnz SD011C
  1913 0000147F EB07                    	jmp SDEnd0115
  1914                                  SD011C:
  1915 00001481 E8(00000000)            	call pIn
  1916 00001486 0122                    	 db 1, 34
  1917                                  SDEnd0115:
  1918 00001488 E8(00000000)            	call cDrop
  1919 0000148D E302                    	jrcxz DL011D
  1920 0000148F EB44                    	jmp DLEnd0114
  1921 00001491 48FFC1                  DL011D:	inc rcx
  1922 00001494 E8(00000000)            	call cTop
  1923 00001499 E8(00000000)            	call cPush
  1924 0000149E E8(00000000)            	call pIn
  1925 000014A3 023078                  	 db 0x0002, "0x"
  1926 000014A6 4809C9                  	or rPOk, rPOk
  1927 000014A9 7502                    	jnz SD011E
  1928 000014AB EB23                    	jmp SDEnd011E
  1929                                  SD011E:
  1930 000014AD 41BD02000000            	mov rFactCnt, 2
  1931 000014B3 4D09ED                  	or rFactCnt, rFactCnt
  1932 000014B6 740E                    	jz FacEnd011F
  1933                                  FacRep011F:
  1934 000014B8 E887EFFFFF              	call pHexChar
  1935 000014BD 49FFCD                  	dec rFactCnt
  1936 000014C0 E304                    	jrcxz FacEnd011F
  1937 000014C2 7402                    	jz FacEnd011F
  1938 000014C4 EBF2                    	jmp FacRep011F
  1939                                  FacEnd011F:
  1940 000014C6 4809C9                  	or rPOk, rPOk
  1941 000014C9 7502                    	jnz SD0120
  1942 000014CB EB03                    	jmp SDEnd011E
  1943                                  SD0120:
  1944 000014CD 41FE07                  	inc byte [r15]
  1945                                  SDEnd011E:
  1946 000014D0 E8(00000000)            	call cDrop
  1947                                  DLEnd0114:
  1948 000014D5 E8(00000000)            	call cDrop
  1949                                  SDEnd0109:
  1950 000014DA E8(00000000)            	call cDrop
  1951 000014DF E30A                    	jrcxz RSEnd0108
  1952 000014E1 4D09F6                  	or rInEndFlg, rInEndFlg
  1953 000014E4 7505                    	jnz RSEnd0108
  1954 000014E6 E970FEFFFF              	jmp RSRep0108
  1955                                  RSEnd0108:
  1956 000014EB 4831C9                  	xor rPOk, rPOk
  1957 000014EE 48FFC1                  	inc rPOk
  1958 000014F1 E8(00000000)            	call cDrop
  1959 000014F6 4809C9                  	or rPOk, rPOk
  1960 000014F9 7502                    	jnz SD0121
  1961 000014FB EB10                    	jmp SDEnd00D7
  1962                                  SD0121:
  1963 000014FD E8(00000000)            	call pOutLI
  1964 00001502 4C89FF                  	mov rdi, r15
  1965 00001505 418A07                  	mov al, [r15]
  1966 00001508 E8(00000000)            	call Bin1Hex
  1967                                  SDEnd00D7:
  1968 0000150D E305                    	jrcxz DL0122
  1969 0000150F E95A010000              	jmp DLEnd0122
  1970 00001514 48FFC1                  DL0122:	inc rcx
  1971 00001517 E8(00000000)            	call cTop
  1972 0000151C E82CF2FFFF              	call pInteger
  1973 00001521 4809C9                  	or rPOk, rPOk
  1974 00001524 7505                    	jnz SD0123
  1975 00001526 E988000000              	jmp SDEnd0123
  1976                                  SD0123:
  1977 0000152B E8(00000000)            	call pOut
  1978 00001530 060A0920647120          	 db 6, 10, 9, " dq "
  1979 00001537 E8(00000000)            	call pOutLI
  1980 0000153C 4809C9                  	or rPOk, rPOk
  1981 0000153F 7502                    	jnz SD0124
  1982 00001541 EB70                    	jmp SDEnd0123
  1983                                  SD0124:
  1984 00001543 E8(00000000)            	call cPush
  1985                                  RSRep012A:
  1986 00001548 E8(00000000)            	call cPush
  1987 0000154D E893F1FFFF              	call pS
  1988 00001552 4809C9                  	or rPOk, rPOk
  1989 00001555 7502                    	jnz SD012B
  1990 00001557 EB41                    	jmp SDEnd012B
  1991                                  SD012B:
  1992 00001559 E8(00000000)            	call pIn
  1993 0000155E 012C                    	 db 0x0001, ","
  1994 00001560 4809C9                  	or rPOk, rPOk
  1995 00001563 7502                    	jnz SD012C
  1996 00001565 EB33                    	jmp SDEnd012B
  1997                                  SD012C:
  1998 00001567 E879F1FFFF              	call pS
  1999 0000156C 4809C9                  	or rPOk, rPOk
  2000 0000156F 7502                    	jnz SD012D
  2001 00001571 EB27                    	jmp SDEnd012B
  2002                                  SD012D:
  2003 00001573 E8(00000000)            	call cPush
  2004 00001578 E8D0F1FFFF              	call pInteger
  2005 0000157D E8(00000000)            	call cDrop
  2006 00001582 4809C9                  	or rPOk, rPOk
  2007 00001585 7502                    	jnz SD012E
  2008 00001587 EB11                    	jmp SDEnd012B
  2009                                  SD012E:
  2010 00001589 E8(00000000)            	call pOut
  2011 0000158E 060A0920647120          	 db 6, 10, 9, " dq "
  2012 00001595 E8(00000000)            	call pOutLI
  2013                                  SDEnd012B:
  2014 0000159A E8(00000000)            	call cDrop
  2015 0000159F E307                    	jrcxz RSEnd012A
  2016 000015A1 4D09F6                  	or rInEndFlg, rInEndFlg
  2017 000015A4 7502                    	jnz RSEnd012A
  2018 000015A6 EBA0                    	jmp RSRep012A
  2019                                  RSEnd012A:
  2020 000015A8 4831C9                  	xor rPOk, rPOk
  2021 000015AB 48FFC1                  	inc rPOk
  2022 000015AE E8(00000000)            	call cDrop
  2023                                  SDEnd0123:
  2024 000015B3 E305                    	jrcxz DL012F
  2025 000015B5 E9B4000000              	jmp DLEnd0122
  2026 000015BA 48FFC1                  DL012F:	inc rcx
  2027 000015BD E8(00000000)            	call cTop
  2028 000015C2 E8(00000000)            	call pIn
  2029 000015C7 012A                    	 db 0x0001, "*"
  2030 000015C9 4809C9                  	or rPOk, rPOk
  2031 000015CC 7505                    	jnz SD0130
  2032 000015CE E99B000000              	jmp SDEnd0130
  2033                                  SD0130:
  2034 000015D3 E8B4F1FFFF              	call pIdentifier
  2035 000015D8 4809C9                  	or rPOk, rPOk
  2036 000015DB 7505                    	jnz SD0131
  2037 000015DD E98C000000              	jmp SDEnd0130
  2038                                  SD0131:
  2039 000015E2 E8(00000000)            	call pOut
  2040 000015E7 060A0920647120          	 db 6, 10, 9, " dq "
  2041 000015EE E8(00000000)            	call pOutLI
  2042 000015F3 4809C9                  	or rPOk, rPOk
  2043 000015F6 7502                    	jnz SD0132
  2044 000015F8 EB74                    	jmp SDEnd0130
  2045                                  SD0132:
  2046 000015FA E8(00000000)            	call cPush
  2047                                  RSRep0139:
  2048 000015FF E8(00000000)            	call cPush
  2049 00001604 E8DCF0FFFF              	call pS
  2050 00001609 4809C9                  	or rPOk, rPOk
  2051 0000160C 7502                    	jnz SD013A
  2052 0000160E EB45                    	jmp SDEnd013A
  2053                                  SD013A:
  2054 00001610 E8(00000000)            	call pIn
  2055 00001615 012C                    	 db 0x0001, ","
  2056 00001617 4809C9                  	or rPOk, rPOk
  2057 0000161A 7502                    	jnz SD013B
  2058 0000161C EB37                    	jmp SDEnd013A
  2059                                  SD013B:
  2060 0000161E E8C2F0FFFF              	call pS
  2061 00001623 4809C9                  	or rPOk, rPOk
  2062 00001626 7502                    	jnz SD013C
  2063 00001628 EB2B                    	jmp SDEnd013A
  2064                                  SD013C:
  2065 0000162A E8(00000000)            	call pIn
  2066 0000162F 012A                    	 db 0x0001, "*"
  2067 00001631 4809C9                  	or rPOk, rPOk
  2068 00001634 7502                    	jnz SD013D
  2069 00001636 EB1D                    	jmp SDEnd013A
  2070                                  SD013D:
  2071 00001638 E84FF1FFFF              	call pIdentifier
  2072 0000163D 4809C9                  	or rPOk, rPOk
  2073 00001640 7502                    	jnz SD013E
  2074 00001642 EB11                    	jmp SDEnd013A
  2075                                  SD013E:
  2076 00001644 E8(00000000)            	call pOut
  2077 00001649 060A0920647120          	 db 6, 10, 9, " dq "
  2078 00001650 E8(00000000)            	call pOutLI
  2079                                  SDEnd013A:
  2080 00001655 E8(00000000)            	call cDrop
  2081 0000165A E307                    	jrcxz RSEnd0139
  2082 0000165C 4D09F6                  	or rInEndFlg, rInEndFlg
  2083 0000165F 7502                    	jnz RSEnd0139
  2084 00001661 EB9C                    	jmp RSRep0139
  2085                                  RSEnd0139:
  2086 00001663 4831C9                  	xor rPOk, rPOk
  2087 00001666 48FFC1                  	inc rPOk
  2088 00001669 E8(00000000)            	call cDrop
  2089                                  SDEnd0130:
  2090                                  DLEnd0122:
  2091 0000166E E8(00000000)            	call cDrop
  2092 00001673 C3                      	ret
  2093                                  
  2094                                  ;pArgument	= 								<.	call pOut.>
  2095                                  ;		      								<.	db 8, 10, 9, " db 0x".>
  2096                                  ;										<.	mov r15, rOutPnt.>
  2097                                  ;		      								<.	call pOut.>
  2098                                  ;						     				<.	 db 4, 0, 0, ", ".>,
  2099                                  ;		( ("'", {^0..^255-"'"						,<.	inc byte [r15].>
  2100                                  ;					}, "'") |
  2101                                  ;		  ('"', {^0..^255-'"'						,<.	inc byte [r15].>
  2102                                  ;					}, '"') |
  2103                                  ;		  ("0x", 2*pHexChar)						,<.	inc byte [r15].>
  2104                                  ;		)								,<.	call pOutLI.>
  2105                                  ;
  2106                                  ;		, {pS, ",", pS, (("'",{^0..^255-"'"				,<.	inc byte [r15].>
  2107                                  ;		     				        }, "'") |
  2108                                  ;				 ('"',{^0..^255-'"'				,<.	inc byte [r15].>
  2109                                  ;		     				        }, '"') |
  2110                                  ;				 ("0x", 2*pHexChar				,<.	inc byte [r15].>
  2111                                  ;						  ))}				,<.	call pOutLI.>
  2112                                  ;										<.	mov rdi, r15.>
  2113                                  ;										<.	mov al, [r15].>
  2114                                  ;										<.	call Bin1Hex.>
  2115                                  ;		|pInteger							,<.	call pOut.>
  2116                                  ;										<.	 db 6, 10, 9, " dq ".>
  2117                                  ;										<.	call pOutLI.>
  2118                                  ;			 , {pS, ",", pS, (pInteger) 				,<.	call pOut.>
  2119                                  ;										<.	 db 6, 10, 9, " dq ".> 
  2120                                  ;										<.	call pOutLI.>
  2121                                  ;						     }
  2122                                  ;		|"*", pIdentifier						,<.	call pOut.>
  2123                                  ;										<.	 db 6, 10, 9, " dq ".>
  2124                                  ;										<.	call pOutLI.>
  2125                                  ;			 , {pS, ",", pS, "*", pIdentifier			,<.	call pOut.>
  2126                                  ;										<.	 db 6, 10, 9, " dq ".> 
  2127                                  ;										<.	call pOutLI.>
  2128                                  ;						     };
  2129                                  ;						     
  2130                                  ;
  2131                                  
  2132                                  ;xxxxxxxxxxxxxxxxxxxxxxxxxxxxxxxxxxxxxxxxxxxxxxxxxxxxxxxxxxxxxxxxxxxxxxxxxxxxxx
  2133                                  pFunction:
  2134 00001674 E8(00000000)            	call cPush
  2135 00001679 E8(00000000)            	call cPush
  2136 0000167E E8(00000000)            	call cPush
  2137 00001683 E8(00000000)            	call pIn
  2138 00001688 04704F7574              	 db 0x0004, "pOut"
  2139 0000168D E305                    	jrcxz DL013F
  2140 0000168F E99C000000              	jmp DLEnd013F
  2141 00001694 48FFC1                  DL013F:	inc rcx
  2142 00001697 E8(00000000)            	call cTop
  2143 0000169C E8(00000000)            	call pIn
  2144 000016A1 06497342697431          	 db 0x0006, "IsBit1"
  2145 000016A8 E305                    	jrcxz DL0140
  2146 000016AA E981000000              	jmp DLEnd013F
  2147 000016AF 48FFC1                  DL0140:	inc rcx
  2148 000016B2 E8(00000000)            	call cTop
  2149 000016B7 E8(00000000)            	call pIn
  2150 000016BC 054973426974            	 db 0x0005, "IsBit"
  2151 000016C2 E302                    	jrcxz DL0141
  2152 000016C4 EB6A                    	jmp DLEnd013F
  2153 000016C6 48FFC1                  DL0141:	inc rcx
  2154 000016C9 E8(00000000)            	call cTop
  2155 000016CE E8(00000000)            	call pIn
  2156 000016D3 074D657373616765        	 db 0x0007, "Message"
  2157 000016DB E302                    	jrcxz DL0142
  2158 000016DD EB51                    	jmp DLEnd013F
  2159 000016DF 48FFC1                  DL0142:	inc rcx
  2160 000016E2 E8(00000000)            	call cTop
  2161 000016E7 E8(00000000)            	call pIn
  2162 000016EC 0C4572726F724D6573-     	 db 0x000C, "ErrorMessage"
  2162 000016F5 73616765           
  2163 000016F9 E302                    	jrcxz DL0143
  2164 000016FB EB33                    	jmp DLEnd013F
  2165 000016FD 48FFC1                  DL0143:	inc rcx
  2166 00001700 E8(00000000)            	call cTop
  2167 00001705 E8(00000000)            	call pIn
  2168 0000170A 074C4953746F7265        	 db 0x0007, "LIStore"
  2169 00001712 E302                    	jrcxz DL0144
  2170 00001714 EB1A                    	jmp DLEnd013F
  2171 00001716 48FFC1                  DL0144:	inc rcx
  2172 00001719 E8(00000000)            	call cTop
  2173 0000171E E8(00000000)            	call pIn
  2174 00001723 0C5365744269744D61-     	 db 0x000C, "SetBitMapCur"
  2174 0000172C 70437572           
  2175                                  DLEnd013F:
  2176 00001730 E8(00000000)            	call cDrop
  2177 00001735 4809C9                  	or rPOk, rPOk
  2178 00001738 7502                    	jnz SD0145
  2179 0000173A EB5E                    	jmp SDEnd0145
  2180                                  SD0145:
  2181 0000173C E8(00000000)            	call pOut
  2182 00001741 070A0963616C6C20        	 db 7, 10, 9, "call "
  2183 00001749 E8(00000000)            	call pOutLI
  2184 0000174E 4809C9                  	or rPOk, rPOk
  2185 00001751 7502                    	jnz SD0146
  2186 00001753 EB45                    	jmp SDEnd0145
  2187                                  SD0146:
  2188 00001755 E88BEFFFFF              	call pS
  2189 0000175A 4809C9                  	or rPOk, rPOk
  2190 0000175D 7502                    	jnz SD0147
  2191 0000175F EB39                    	jmp SDEnd0145
  2192                                  SD0147:
  2193 00001761 E8(00000000)            	call pIn
  2194 00001766 0128                    	 db 0x0001, '('
  2195 00001768 4809C9                  	or rPOk, rPOk
  2196 0000176B 7502                    	jnz SD0148
  2197 0000176D EB2B                    	jmp SDEnd0145
  2198                                  SD0148:
  2199 0000176F E871EFFFFF              	call pS
  2200 00001774 4809C9                  	or rPOk, rPOk
  2201 00001777 7502                    	jnz SD0149
  2202 00001779 EB1F                    	jmp SDEnd0145
  2203                                  SD0149:
  2204 0000177B E848FAFFFF              	call pArgument
  2205 00001780 4809C9                  	or rPOk, rPOk
  2206 00001783 7502                    	jnz SD014A
  2207 00001785 EB13                    	jmp SDEnd0145
  2208                                  SD014A:
  2209 00001787 E859EFFFFF              	call pS
  2210 0000178C 4809C9                  	or rPOk, rPOk
  2211 0000178F 7502                    	jnz SD014B
  2212 00001791 EB07                    	jmp SDEnd0145
  2213                                  SD014B:
  2214 00001793 E8(00000000)            	call pIn
  2215 00001798 0129                    	 db 0x0001, ')'
  2216                                  SDEnd0145:
  2217 0000179A E8(00000000)            	call cDrop
  2218 0000179F E305                    	jrcxz DL014C
  2219 000017A1 E910020000              	jmp DLEnd014C
  2220 000017A6 48FFC1                  DL014C:	inc rcx
  2221 000017A9 E8(00000000)            	call cTop
  2222 000017AE E8D9EFFFFF              	call pIdentifier
  2223 000017B3 4809C9                  	or rPOk, rPOk
  2224 000017B6 7505                    	jnz SD014D
  2225 000017B8 E9CF010000              	jmp SDEnd014D
  2226                                  SD014D:
  2227 000017BD E8(00000000)            	call cPush
  2228 000017C2 E81EEFFFFF              	call pS
  2229 000017C7 4809C9                  	or rPOk, rPOk
  2230 000017CA 7505                    	jnz SD014E
  2231 000017CC E99D010000              	jmp SDEnd014E
  2232                                  SD014E:
  2233 000017D1 E8(00000000)            	call pIn
  2234 000017D6 0128                    	 db 0x0001, '('
  2235 000017D8 4809C9                  	or rPOk, rPOk
  2236 000017DB 7505                    	jnz SD014F
  2237 000017DD E98C010000              	jmp SDEnd014E
  2238                                  SD014F:
  2239 000017E2 E8FEEEFFFF              	call pS
  2240 000017E7 4809C9                  	or rPOk, rPOk
  2241 000017EA 7505                    	jnz SD0150
  2242 000017EC E97D010000              	jmp SDEnd014E
  2243                                  SD0150:
  2244 000017F1 E8(00000000)            	call cPush
  2245 000017F6 E879FEFFFF              	call pFunction
  2246 000017FB E302                    	jrcxz DL0151
  2247 000017FD EB6F                    	jmp DLEnd0151
  2248 000017FF 48FFC1                  DL0151:	inc rcx
  2249 00001802 E8(00000000)            	call cTop
  2250 00001807 E841EFFFFF              	call pInteger
  2251 0000180C 4809C9                  	or rPOk, rPOk
  2252 0000180F 7502                    	jnz SD0152
  2253 00001811 EB12                    	jmp SDEnd0152
  2254                                  SD0152:
  2255 00001813 E8(00000000)            	call pOut
  2256 00001818 070A097075736820        	 db 7, 10, 9, "push "
  2257 00001820 E8(00000000)            	call pOutLI
  2258                                  SDEnd0152:
  2259 00001825 E302                    	jrcxz DL0153
  2260 00001827 EB45                    	jmp DLEnd0151
  2261 00001829 48FFC1                  DL0153:	inc rcx
  2262 0000182C E8(00000000)            	call cTop
  2263 00001831 E8(00000000)            	call pIn
  2264 00001836 012A                    	 db 0x0001, "*"
  2265 00001838 4809C9                  	or rPOk, rPOk
  2266 0000183B 7502                    	jnz SD0154
  2267 0000183D EB1E                    	jmp SDEnd0154
  2268                                  SD0154:
  2269 0000183F E848EFFFFF              	call pIdentifier
  2270 00001844 4809C9                  	or rPOk, rPOk
  2271 00001847 7502                    	jnz SD0155
  2272 00001849 EB12                    	jmp SDEnd0154
  2273                                  SD0155:
  2274 0000184B E8(00000000)            	call pOut
  2275 00001850 070A097075736820        	 db 7, 10, 9, "push "
  2276 00001858 E8(00000000)            	call pOutLI
  2277                                  SDEnd0154:
  2278 0000185D E302                    	jrcxz DL0156
  2279 0000185F EB0D                    	jmp DLEnd0151
  2280 00001861 48FFC1                  DL0156:	inc rcx
  2281 00001864 E8(00000000)            	call cTop
  2282 00001869 E899010000              	call StringExp
  2283                                  DLEnd0151:
  2284 0000186E E8(00000000)            	call cDrop
  2285 00001873 4809C9                  	or rPOk, rPOk
  2286 00001876 7505                    	jnz SD0157
  2287 00001878 E9F1000000              	jmp SDEnd014E
  2288                                  SD0157:
  2289 0000187D E8(00000000)            	call cPush
  2290                                  RSRep0162:
  2291 00001882 E8(00000000)            	call cPush
  2292 00001887 E859EEFFFF              	call pS
  2293 0000188C 4809C9                  	or rPOk, rPOk
  2294 0000188F 7505                    	jnz SD0163
  2295 00001891 E9A2000000              	jmp SDEnd0163
  2296                                  SD0163:
  2297 00001896 E8(00000000)            	call pIn
  2298 0000189B 012C                    	 db 0x0001, ','
  2299 0000189D 4809C9                  	or rPOk, rPOk
  2300 000018A0 7505                    	jnz SD0164
  2301 000018A2 E991000000              	jmp SDEnd0163
  2302                                  SD0164:
  2303 000018A7 E839EEFFFF              	call pS
  2304 000018AC 4809C9                  	or rPOk, rPOk
  2305 000018AF 7505                    	jnz SD0165
  2306 000018B1 E982000000              	jmp SDEnd0163
  2307                                  SD0165:
  2308 000018B6 E8(00000000)            	call cPush
  2309 000018BB E8B4FDFFFF              	call pFunction
  2310 000018C0 E302                    	jrcxz DL0166
  2311 000018C2 EB6F                    	jmp DLEnd0166
  2312 000018C4 48FFC1                  DL0166:	inc rcx
  2313 000018C7 E8(00000000)            	call cTop
  2314 000018CC E87CEEFFFF              	call pInteger
  2315 000018D1 4809C9                  	or rPOk, rPOk
  2316 000018D4 7502                    	jnz SD0167
  2317 000018D6 EB12                    	jmp SDEnd0167
  2318                                  SD0167:
  2319 000018D8 E8(00000000)            	call pOut
  2320 000018DD 070A097075736820        	 db 7, 10, 9, "push "
  2321 000018E5 E8(00000000)            	call pOutLI
  2322                                  SDEnd0167:
  2323 000018EA E302                    	jrcxz DL0168
  2324 000018EC EB45                    	jmp DLEnd0166
  2325 000018EE 48FFC1                  DL0168:	inc rcx
  2326 000018F1 E8(00000000)            	call cTop
  2327 000018F6 E8(00000000)            	call pIn
  2328 000018FB 012A                    	 db 0x0001, "*"
  2329 000018FD 4809C9                  	or rPOk, rPOk
  2330 00001900 7502                    	jnz SD0169
  2331 00001902 EB1E                    	jmp SDEnd0169
  2332                                  SD0169:
  2333 00001904 E883EEFFFF              	call pIdentifier
  2334 00001909 4809C9                  	or rPOk, rPOk
  2335 0000190C 7502                    	jnz SD016A
  2336 0000190E EB12                    	jmp SDEnd0169
  2337                                  SD016A:
  2338 00001910 E8(00000000)            	call pOut
  2339 00001915 070A097075736820        	 db 7, 10, 9, "push "
  2340 0000191D E8(00000000)            	call pOutLI
  2341                                  SDEnd0169:
  2342 00001922 E302                    	jrcxz DL016B
  2343 00001924 EB0D                    	jmp DLEnd0166
  2344 00001926 48FFC1                  DL016B:	inc rcx
  2345 00001929 E8(00000000)            	call cTop
  2346 0000192E E8D4000000              	call StringExp
  2347                                  DLEnd0166:
  2348 00001933 E8(00000000)            	call cDrop
  2349                                  SDEnd0163:
  2350 00001938 E8(00000000)            	call cDrop
  2351 0000193D E30A                    	jrcxz RSEnd0162
  2352 0000193F 4D09F6                  	or rInEndFlg, rInEndFlg
  2353 00001942 7505                    	jnz RSEnd0162
  2354 00001944 E939FFFFFF              	jmp RSRep0162
  2355                                  RSEnd0162:
  2356 00001949 4831C9                  	xor rPOk, rPOk
  2357 0000194C 48FFC1                  	inc rPOk
  2358 0000194F E8(00000000)            	call cDrop
  2359 00001954 4809C9                  	or rPOk, rPOk
  2360 00001957 7502                    	jnz SD016C
  2361 00001959 EB13                    	jmp SDEnd014E
  2362                                  SD016C:
  2363 0000195B E885EDFFFF              	call pS
  2364 00001960 4809C9                  	or rPOk, rPOk
  2365 00001963 7502                    	jnz SD016D
  2366 00001965 EB07                    	jmp SDEnd014E
  2367                                  SD016D:
  2368 00001967 E8(00000000)            	call pIn
  2369 0000196C 0129                    	 db 0x0001, ')'
  2370                                  SDEnd014E:
  2371 0000196E E8(00000000)            	call cDrop
  2372 00001973 4809C9                  	or rPOk, rPOk
  2373 00001976 7502                    	jnz SD016E
  2374 00001978 EB12                    	jmp SDEnd014D
  2375                                  SD016E:
  2376 0000197A E8(00000000)            	call pOut 
  2377 0000197F 070A0963616C6C20        	 db 7, 10, 9, "call "
  2378 00001987 E8(00000000)            	call pOutPI
  2379                                  SDEnd014D:
  2380 0000198C E302                    	jrcxz DL016F
  2381 0000198E EB26                    	jmp DLEnd014C
  2382 00001990 48FFC1                  DL016F:	inc rcx
  2383 00001993 E8(00000000)            	call cTop
  2384 00001998 E8EFEDFFFF              	call pIdentifier
  2385 0000199D 4809C9                  	or rPOk, rPOk
  2386 000019A0 7502                    	jnz SD0170
  2387 000019A2 EB12                    	jmp SDEnd0170
  2388                                  SD0170:
  2389 000019A4 E8(00000000)            	call pOut 
  2390 000019A9 070A0963616C6C20        	 db 7, 10, 9, "call "
  2391 000019B1 E8(00000000)            	call pOutLI
  2392                                  SDEnd0170:
  2393                                  DLEnd014C:
  2394 000019B6 E8(00000000)            	call cDrop
  2395 000019BB C3                      	ret
  2396                                  
  2397                                  ;pFunction	= (("pOut"|"IsBit1"| "IsBit"|"Message"| "ErrorMessage"| "LIStore"| "SetBitMapCur"),		/* Exception list for inline parameters */
  2398                                  ;										<.	call pOut.>
  2399                                  ;										<.	 db 7, 10, 9, "call ".>
  2400                                  ;										<.	call pOutLI.>,
  2401                                  ;				pS, '(', pS, pArgument, pS, ')')
  2402                                  ;		  |pIdentifier,
  2403                                  ;		  
  2404                                  ;			  (pS, '(', pS, (pFunction|pInteger			,<.	call pOut.>
  2405                                  ;		    								<.	 db 7, 10, 9, "push ".>
  2406                                  ;		    								<.	call pOutLI.>
  2407                                  ;		    		  			  |"*", pIdentifier	,<.	call pOut.>
  2408                                  ;		    								<.	 db 7, 10, 9, "push ".>
  2409                                  ;		    								<.	call pOutLI.>
  2410                                  ;		    					  | StringExp		    )
  2411                                  ;
  2412                                  ;			, {pS, ',', pS, (pFunction|pInteger			,<.	call pOut.>
  2413                                  ;		    								<.	 db 7, 10, 9, "push ".>
  2414                                  ;		    								<.	call pOutLI.>
  2415                                  ;							  
  2416                                  ;		    		  			  |"*", pIdentifier	,<.	call pOut.>
  2417                                  ;		    								<.	 db 7, 10, 9, "push ".>
  2418                                  ;		    								<.	call pOutLI.>
  2419                                  ;		    					  | StringExp
  2420                                  ;		    							    ) }, pS,  ')' )
  2421                                  ;		    							    
  2422                                  ;		    							    	,<.	call pOut .>
  2423                                  ;										<.	 db 7, 10, 9, "call ".>
  2424                                  ;										<.	call pOutPI.>
  2425                                  ;		  |pIdentifier							,<.	call pOut .>
  2426                                  ;										<.	 db 7, 10, 9, "call ".>
  2427                                  ;										<.	call pOutLI.>;
  2428                                  ;
  2429                                  ;
  2430                                  
  2431                                  ;xxxxxxxxxxxxxxxxxxxxxxxxxxxxxxxxxxxxxxxxxxxxxxxxxxxxxxxxxxxxxxxxxxxxxxxxxxxxxx
  2432                                  pFunctionList:
  2433 000019BC E8(00000000)            	call cPush
  2434 000019C1 E8AEFCFFFF              	call pFunction
  2435 000019C6 4809C9                  	or rPOk, rPOk
  2436 000019C9 7502                    	jnz SD0171
  2437 000019CB EB34                    	jmp SDEnd0171
  2438                                  SD0171:
  2439 000019CD E8(00000000)            	call cPush
  2440                                  RSRep0174:
  2441 000019D2 E8(00000000)            	call cPush
  2442 000019D7 E809EDFFFF              	call pS
  2443 000019DC 4809C9                  	or rPOk, rPOk
  2444 000019DF 7502                    	jnz SD0175
  2445 000019E1 EB05                    	jmp SDEnd0175
  2446                                  SD0175:
  2447 000019E3 E88CFCFFFF              	call pFunction
  2448                                  SDEnd0175:
  2449 000019E8 E8(00000000)            	call cDrop
  2450 000019ED E307                    	jrcxz RSEnd0174
  2451 000019EF 4D09F6                  	or rInEndFlg, rInEndFlg
  2452 000019F2 7502                    	jnz RSEnd0174
  2453 000019F4 EBDC                    	jmp RSRep0174
  2454                                  RSEnd0174:
  2455 000019F6 4831C9                  	xor rPOk, rPOk
  2456 000019F9 48FFC1                  	inc rPOk
  2457 000019FC E8(00000000)            	call cDrop
  2458                                  SDEnd0171:
  2459 00001A01 E8(00000000)            	call cDrop
  2460 00001A06 C3                      	ret
  2461                                  
  2462                                  ;pFunctionList = pFunction , { pS, pFunction };
  2463                                  ;
  2464                                  ;
  2465                                  ;
  2466                                  ;			/* todo proper expr with "&" */
  2467                                  
  2468                                  ;xxxxxxxxxxxxxxxxxxxxxxxxxxxxxxxxxxxxxxxxxxxxxxxxxxxxxxxxxxxxxxxxxxxxxxxxxxxxxx
  2469                                  StringExp:
  2470 00001A07 E8(00000000)            	call cPush
  2471 00001A0C E8(00000000)            	call pIn
  2472 00001A11 0127                    	 db 0x0001, "'"
  2473 00001A13 4809C9                  	or rPOk, rPOk
  2474 00001A16 7505                    	jnz SD0176
  2475 00001A18 E98F000000              	jmp SDEnd0176
  2476                                  SD0176:
  2477 00001A1D E8(00000000)            	call cPush
  2478                                  RSRep0179:
  2479 00001A22 E8(00000000)            	call cPush
  2480 00001A27 E8C2E9FFFF              	call pCharacter
  2481 00001A2C E302                    	jrcxz DL017A
  2482 00001A2E EB0F                    	jmp DLEnd017A
  2483 00001A30 48FFC1                  DL017A:	inc rcx
  2484 00001A33 E8(00000000)            	call cTop
  2485 00001A38 E8(00000000)            	call pIn
  2486 00001A3D 0122                    	 db 1, 34
  2487                                  DLEnd017A:
  2488 00001A3F E8(00000000)            	call cDrop
  2489 00001A44 E307                    	jrcxz RSEnd0179
  2490 00001A46 4D09F6                  	or rInEndFlg, rInEndFlg
  2491 00001A49 7502                    	jnz RSEnd0179
  2492 00001A4B EBD5                    	jmp RSRep0179
  2493                                  RSEnd0179:
  2494 00001A4D 4831C9                  	xor rPOk, rPOk
  2495 00001A50 48FFC1                  	inc rPOk
  2496 00001A53 E8(00000000)            	call cDrop
  2497 00001A58 4809C9                  	or rPOk, rPOk
  2498 00001A5B 7502                    	jnz SD017B
  2499 00001A5D EB4D                    	jmp SDEnd0176
  2500                                  SD017B:
  2501 00001A5F E8(00000000)            	call pOut
  2502 00001A64 0C0A0963616C6C2073-     	 db 12, 10, 9, "call sPush"
  2502 00001A6D 50757368           
  2503 00001A71 E8(00000000)            	call pOut
  2504 00001A76 080A09206462203078      	 db 8, 10, 9, " db 0x"
  2505 00001A7F E8(00000000)            	call pOutLILen
  2506 00001A84 E8(00000000)            	call pOut
  2507 00001A89 032C2027                	 db 3, ", '"
  2508 00001A8D E8(00000000)            	call pOutLI
  2509 00001A92 4809C9                  	or rPOk, rPOk
  2510 00001A95 7502                    	jnz SD017C
  2511 00001A97 EB13                    	jmp SDEnd0176
  2512                                  SD017C:
  2513 00001A99 E8(00000000)            	call pIn
  2514 00001A9E 0127                    	 db 0x0001, "'"
  2515 00001AA0 4809C9                  	or rPOk, rPOk
  2516 00001AA3 7502                    	jnz SD017D
  2517 00001AA5 EB05                    	jmp SDEnd0176
  2518                                  SD017D:
  2519 00001AA7 E8(00000000)            	call pOutLI
  2520                                  SDEnd0176:
  2521 00001AAC E305                    	jrcxz DL017E
  2522 00001AAE E9A8000000              	jmp DLEnd017E
  2523 00001AB3 48FFC1                  DL017E:	inc rcx
  2524 00001AB6 E8(00000000)            	call cTop
  2525 00001ABB E8(00000000)            	call pIn
  2526 00001AC0 0122                    	 db 1, 34
  2527 00001AC2 4809C9                  	or rPOk, rPOk
  2528 00001AC5 7505                    	jnz SD017F
  2529 00001AC7 E98F000000              	jmp SDEnd017F
  2530                                  SD017F:
  2531 00001ACC E8(00000000)            	call cPush
  2532                                  RSRep0182:
  2533 00001AD1 E8(00000000)            	call cPush
  2534 00001AD6 E813E9FFFF              	call pCharacter
  2535 00001ADB E302                    	jrcxz DL0183
  2536 00001ADD EB0F                    	jmp DLEnd0183
  2537 00001ADF 48FFC1                  DL0183:	inc rcx
  2538 00001AE2 E8(00000000)            	call cTop
  2539 00001AE7 E8(00000000)            	call pIn
  2540 00001AEC 0127                    	 db 0x0001, "'"
  2541                                  DLEnd0183:
  2542 00001AEE E8(00000000)            	call cDrop
  2543 00001AF3 E307                    	jrcxz RSEnd0182
  2544 00001AF5 4D09F6                  	or rInEndFlg, rInEndFlg
  2545 00001AF8 7502                    	jnz RSEnd0182
  2546 00001AFA EBD5                    	jmp RSRep0182
  2547                                  RSEnd0182:
  2548 00001AFC 4831C9                  	xor rPOk, rPOk
  2549 00001AFF 48FFC1                  	inc rPOk
  2550 00001B02 E8(00000000)            	call cDrop
  2551 00001B07 4809C9                  	or rPOk, rPOk
  2552 00001B0A 7502                    	jnz SD0184
  2553 00001B0C EB4D                    	jmp SDEnd017F
  2554                                  SD0184:
  2555 00001B0E E8(00000000)            	call pOut
  2556 00001B13 0C0A0963616C6C2073-     	 db 12, 10, 9, "call sPush"
  2556 00001B1C 50757368           
  2557 00001B20 E8(00000000)            	call pOut
  2558 00001B25 080A09206462203078      	 db 8, 10, 9, " db 0x"
  2559 00001B2E E8(00000000)            	call pOutLILen
  2560 00001B33 E8(00000000)            	call pOut
  2561 00001B38 032C2022                	 db 3, ', "'
  2562 00001B3C E8(00000000)            	call pOutLI
  2563 00001B41 4809C9                  	or rPOk, rPOk
  2564 00001B44 7502                    	jnz SD0185
  2565 00001B46 EB13                    	jmp SDEnd017F
  2566                                  SD0185:
  2567 00001B48 E8(00000000)            	call pIn
  2568 00001B4D 0122                    	 db 1, 34
  2569 00001B4F 4809C9                  	or rPOk, rPOk
  2570 00001B52 7502                    	jnz SD0186
  2571 00001B54 EB05                    	jmp SDEnd017F
  2572                                  SD0186:
  2573 00001B56 E8(00000000)            	call pOutLI
  2574                                  SDEnd017F:
  2575                                  DLEnd017E:
  2576 00001B5B E8(00000000)            	call cDrop
  2577 00001B60 C3                      	ret
  2578                                  
  2579                                  ;StringExp	= "'", {pCharacter| '"'}					,<.	call pOut.>
  2580                                  ;										<.	 db 12, 10, 9, "call sPush".>
  2581                                  ;										<.	call pOut.>
  2582                                  ;										<.	 db 8, 10, 9, " db 0x".>
  2583                                  ;										<.	call pOutLILen.>
  2584                                  ;										<.	call pOut.>
  2585                                  ;										<.	 db 3, ", '".>
  2586                                  ;										<.	call pOutLI.>
  2587                                  ;					, "'"					,<.	call pOutLI.>
  2588                                  ;		| '"', {pCharacter| "'"}					,<.	call pOut.>
  2589                                  ;										<.	 db 12, 10, 9, "call sPush".>
  2590                                  ;										<.	call pOut.>
  2591                                  ;										<.	 db 8, 10, 9, " db 0x".>
  2592                                  ;										<.	call pOutLILen.>
  2593                                  ;										<.	call pOut.>
  2594                                  ;										<.	 db 3, ', "'.>
  2595                                  ;										<.	call pOutLI.>
  2596                                  ;					, '"'					,<.	call pOutLI.>
  2597                                  ;						;
  2598                                  ;
  2599                                  
  2600                                  ;xxxxxxxxxxxxxxxxxxxxxxxxxxxxxxxxxxxxxxxxxxxxxxxxxxxxxxxxxxxxxxxxxxxxxxxxxxxxxx
  2601                                  OptionalSequence:
  2602 00001B61 E8(00000000)            	call cPush
  2603 00001B66 E87AEBFFFF              	call pS
  2604 00001B6B 4809C9                  	or rPOk, rPOk
  2605 00001B6E 7505                    	jnz SD0187
  2606 00001B70 E985000000              	jmp SDEnd0187
  2607                                  SD0187:
  2608 00001B75 E8(00000000)            	call pIn
  2609 00001B7A 015B                    	 db 0x0001, '['
  2610 00001B7C 4809C9                  	or rPOk, rPOk
  2611 00001B7F 7502                    	jnz SD0188
  2612 00001B81 EB77                    	jmp SDEnd0187
  2613                                  SD0188:
  2614 00001B83 E8(00000000)            	call pOut
  2615 00001B88 0C0A0963616C6C2063-     	 db 12, 10, 9, "call cPush"
  2615 00001B91 50757368           
  2616 00001B95 4809C9                  	or rPOk, rPOk
  2617 00001B98 7502                    	jnz SD0189
  2618 00001B9A EB5E                    	jmp SDEnd0187
  2619                                  SD0189:
  2620 00001B9C E8B70A0000              	call DefinitionsList
  2621 00001BA1 4809C9                  	or rPOk, rPOk
  2622 00001BA4 7502                    	jnz SD018A
  2623 00001BA6 EB52                    	jmp SDEnd0187
  2624                                  SD018A:
  2625 00001BA8 E838EBFFFF              	call pS
  2626 00001BAD 4809C9                  	or rPOk, rPOk
  2627 00001BB0 7502                    	jnz SD018B
  2628 00001BB2 EB46                    	jmp SDEnd0187
  2629                                  SD018B:
  2630 00001BB4 E8(00000000)            	call pIn
  2631 00001BB9 015D                    	 db 0x0001, ']'
  2632 00001BBB 4809C9                  	or rPOk, rPOk
  2633 00001BBE 7502                    	jnz SD018C
  2634 00001BC0 EB38                    	jmp SDEnd0187
  2635                                  SD018C:
  2636 00001BC2 E8(00000000)            	call pOut
  2637 00001BC7 0C0A0963616C6C2063-     	 db 12, 10, 9, "call cDrop"
  2637 00001BD0 44726F70           
  2638 00001BD4 E8(00000000)            	call pOut
  2639 00001BD9 100A09786F72207250-     	 db 16, 10, 9, "xor rPOk, rPOk"
  2639 00001BE2 4F6B2C2072504F6B   
  2640 00001BEA E8(00000000)            	call pOut
  2641 00001BEF 0A0A09696E63207250-     	 db 10, 10, 9, "inc rPOk"
  2641 00001BF8 4F6B               
  2642                                  SDEnd0187:
  2643 00001BFA E8(00000000)            	call cDrop
  2644 00001BFF C3                      	ret
  2645                                  
  2646                                  ;OptionalSequence= pS, '[',							<.	call pOut.>
  2647                                  ;										<.	 db 12, 10, 9, "call cPush".>,
  2648                                  ;			   DefinitionsList, pS, ']',				<.	call pOut.>
  2649                                  ;										<.	 db 12, 10, 9, "call cDrop".>
  2650                                  ;										<.	call pOut.>
  2651                                  ;										<.	 db 16, 10, 9, "xor rPOk, rPOk".>
  2652                                  ;										<.	call pOut.>
  2653                                  ;										<.	 db 10, 10, 9, "inc rPOk".> ;
  2654                                  ;
  2655                                  
  2656                                  ;xxxxxxxxxxxxxxxxxxxxxxxxxxxxxxxxxxxxxxxxxxxxxxxxxxxxxxxxxxxxxxxxxxxxxxxxxxxxxx
  2657                                  RepeatedSequence:
  2658 00001C00 E8(00000000)            	call cPush
  2659 00001C05 E8DBEAFFFF              	call pS
  2660 00001C0A 4809C9                  	or rPOk, rPOk
  2661 00001C0D 7505                    	jnz SD018D
  2662 00001C0F E94B010000              	jmp SDEnd018D
  2663                                  SD018D:
  2664 00001C14 E8(00000000)            	call pIn
  2665 00001C19 017B                    	 db 0x0001, '{'
  2666 00001C1B 4809C9                  	or rPOk, rPOk
  2667 00001C1E 7505                    	jnz SD018E
  2668 00001C20 E93A010000              	jmp SDEnd018D
  2669                                  SD018E:
  2670 00001C25 E8(00000000)            	call pOut
  2671 00001C2A 0C0A0963616C6C2063-     	 db 12, 10, 9, "call cPush"
  2671 00001C33 50757368           
  2672 00001C37 E8(00000000)            	call pOut
  2673 00001C3C 060A5253526570          	 db 6, 10, "RSRep"
  2674 00001C43 E8(00000000)            	call LblNew
  2675 00001C48 E8(00000000)            	call pOut
  2676 00001C4D 013A                    	 db 1, ":"
  2677 00001C4F E8(00000000)            	call pOut
  2678 00001C54 0C0A0963616C6C2063-     	 db 12, 10, 9, "call cPush"
  2678 00001C5D 50757368           
  2679 00001C61 4809C9                  	or rPOk, rPOk
  2680 00001C64 7505                    	jnz SD018F
  2681 00001C66 E9F4000000              	jmp SDEnd018D
  2682                                  SD018F:
  2683 00001C6B E8E8090000              	call DefinitionsList
  2684 00001C70 4809C9                  	or rPOk, rPOk
  2685 00001C73 7505                    	jnz SD0190
  2686 00001C75 E9E5000000              	jmp SDEnd018D
  2687                                  SD0190:
  2688 00001C7A E866EAFFFF              	call pS
  2689 00001C7F 4809C9                  	or rPOk, rPOk
  2690 00001C82 7505                    	jnz SD0191
  2691 00001C84 E9D6000000              	jmp SDEnd018D
  2692                                  SD0191:
  2693 00001C89 E8(00000000)            	call pIn
  2694 00001C8E 017D                    	 db 0x0001, '}'
  2695 00001C90 4809C9                  	or rPOk, rPOk
  2696 00001C93 7505                    	jnz SD0192
  2697 00001C95 E9C5000000              	jmp SDEnd018D
  2698                                  SD0192:
  2699 00001C9A E8(00000000)            	call pOut
  2700 00001C9F 0C0A0963616C6C2063-     	 db 12, 10, 9, "call cDrop"
  2700 00001CA8 44726F70           
  2701 00001CAC E8(00000000)            	call pOut
  2702 00001CB1 0D0A096A7263787A20-     	 db 13, 10, 9, "jrcxz RSEnd"
  2702 00001CBA 5253456E64         
  2703 00001CBF E8(00000000)            	call LblUse
  2704 00001CC4 E8(00000000)            	call pOut
  2705 00001CC9 190A096F722072496E-     	 db 25, 10, 9, "or rInEndFlg, rInEndFlg"
  2705 00001CD2 456E64466C672C2072-
  2705 00001CDB 496E456E64466C67   
  2706 00001CE3 E8(00000000)            	call pOut
  2707 00001CE8 0B0A096A6E7A205253-     	 db 11, 10, 9, "jnz RSEnd"
  2707 00001CF1 456E64             
  2708 00001CF4 E8(00000000)            	call LblUse
  2709 00001CF9 E8(00000000)            	call pOut
  2710 00001CFE 0B0A096A6D70205253-     	 db 11, 10, 9, "jmp RSRep"
  2710 00001D07 526570             
  2711 00001D0A E8(00000000)            	call LblUse
  2712 00001D0F E8(00000000)            	call pOut
  2713 00001D14 060A5253456E64          	 db 6, 10, "RSEnd"
  2714 00001D1B E8(00000000)            	call LblCls
  2715 00001D20 E8(00000000)            	call pOut
  2716 00001D25 013A                    	 db 1, ":"
  2717 00001D27 E8(00000000)            	call pOut
  2718 00001D2C 100A09786F72207250-     	 db 16, 10, 9, "xor rPOk, rPOk"
  2718 00001D35 4F6B2C2072504F6B   
  2719 00001D3D E8(00000000)            	call pOut
  2720 00001D42 0A0A09696E63207250-     	 db 10, 10, 9, "inc rPOk"
  2720 00001D4B 4F6B               
  2721 00001D4D E8(00000000)            	call pOut
  2722 00001D52 0C0A0963616C6C2063-     	 db 12, 10, 9, "call cDrop"
  2722 00001D5B 44726F70           
  2723                                  SDEnd018D:
  2724 00001D5F E8(00000000)            	call cDrop
  2725 00001D64 C3                      	ret
  2726                                  
  2727                                  ;RepeatedSequence= pS, '{',							<.	call pOut.>
  2728                                  ;										<.	 db 12, 10, 9, "call cPush".>
  2729                                  ;										<.	call pOut.>
  2730                                  ;										<.	 db 6, 10, "RSRep".>
  2731                                  ;										<.	call LblNew.>
  2732                                  ;										<.	call pOut.>
  2733                                  ;										<.	 db 1, ":".>
  2734                                  ;										<.	call pOut.>
  2735                                  ;										<.	 db 12, 10, 9, "call cPush".>,
  2736                                  ;			   DefinitionsList, pS, '}',				<.	call pOut.>
  2737                                  ;										<.	 db 12, 10, 9, "call cDrop".>
  2738                                  ;										<.	call pOut.>
  2739                                  ;										<.	 db 13, 10, 9, "jrcxz RSEnd".>
  2740                                  ;										<.	call LblUse.>
  2741                                  ;										<.	call pOut.>
  2742                                  ;										<.	 db 25, 10, 9, "or rInEndFlg, rInEndFlg".>
  2743                                  ;										<.	call pOut.>
  2744                                  ;										<.	 db 11, 10, 9, "jnz RSEnd".>
  2745                                  ;										<.	call LblUse.>
  2746                                  ;										<.	call pOut.>
  2747                                  ;										<.	 db 11, 10, 9, "jmp RSRep".>
  2748                                  ;										<.	call LblUse.>
  2749                                  ;										<.	call pOut.>
  2750                                  ;										<.	 db 6, 10, "RSEnd".>
  2751                                  ;										<.	call LblCls.>
  2752                                  ;										<.	call pOut.>
  2753                                  ;										<.	 db 1, ":".>
  2754                                  ;										<.	call pOut.>
  2755                                  ;										<.	 db 16, 10, 9, "xor rPOk, rPOk".>
  2756                                  ;										<.	call pOut.>
  2757                                  ;										<.	 db 10, 10, 9, "inc rPOk".>
  2758                                  ;										<.	call pOut.>
  2759                                  ;										<.	 db 12, 10, 9, "call cDrop".> ;
  2760                                  ;		
  2761                                  
  2762                                  ;xxxxxxxxxxxxxxxxxxxxxxxxxxxxxxxxxxxxxxxxxxxxxxxxxxxxxxxxxxxxxxxxxxxxxxxxxxxxxx
  2763                                  KleeneSequence:
  2764 00001D65 E8(00000000)            	call cPush
  2765 00001D6A E876E9FFFF              	call pS
  2766 00001D6F 4809C9                  	or rPOk, rPOk
  2767 00001D72 7505                    	jnz SD0193
  2768 00001D74 E9B1010000              	jmp SDEnd0193
  2769                                  SD0193:
  2770 00001D79 E8(00000000)            	call pIn
  2771 00001D7E 017B                    	 db 0x0001, '{'
  2772 00001D80 4809C9                  	or rPOk, rPOk
  2773 00001D83 7505                    	jnz SD0194
  2774 00001D85 E9A0010000              	jmp SDEnd0193
  2775                                  SD0194:
  2776 00001D8A E8(00000000)            	call pOut
  2777 00001D8F 0C0A0963616C6C2063-     	 db 12, 10, 9, "call cPush"
  2777 00001D98 50757368           
  2778 00001D9C E8(00000000)            	call pOut
  2779 00001DA1 0C0A0963616C6C2063-     	 db 12, 10, 9, "call cPush"
  2779 00001DAA 50757368           
  2780 00001DAE E8(00000000)            	call pOut
  2781 00001DB3 060A4B53526570          	 db 6, 10, "KSRep"
  2782 00001DBA E8(00000000)            	call LblNew
  2783 00001DBF E8(00000000)            	call pOut
  2784 00001DC4 013A                    	 db 1, ":"
  2785 00001DC6 E8(00000000)            	call pOut
  2786 00001DCB 0C0A0963616C6C2063-     	 db 12, 10, 9, "call cPush"
  2786 00001DD4 50757368           
  2787 00001DD8 4809C9                  	or rPOk, rPOk
  2788 00001DDB 7505                    	jnz SD0195
  2789 00001DDD E948010000              	jmp SDEnd0193
  2790                                  SD0195:
  2791 00001DE2 E871080000              	call DefinitionsList
  2792 00001DE7 4809C9                  	or rPOk, rPOk
  2793 00001DEA 7505                    	jnz SD0196
  2794 00001DEC E939010000              	jmp SDEnd0193
  2795                                  SD0196:
  2796 00001DF1 E8EFE8FFFF              	call pS
  2797 00001DF6 4809C9                  	or rPOk, rPOk
  2798 00001DF9 7505                    	jnz SD0197
  2799 00001DFB E92A010000              	jmp SDEnd0193
  2800                                  SD0197:
  2801 00001E00 E8(00000000)            	call pIn
  2802 00001E05 027D2A                  	 db 0x0002, '}*'
  2803 00001E08 4809C9                  	or rPOk, rPOk
  2804 00001E0B 7505                    	jnz SD0198
  2805 00001E0D E918010000              	jmp SDEnd0193
  2806                                  SD0198:
  2807 00001E12 E8(00000000)            	call pOut
  2808 00001E17 0C0A0963616C6C2063-     	 db 12, 10, 9, "call cDrop"
  2808 00001E20 44726F70           
  2809 00001E24 E8(00000000)            	call pOut
  2810 00001E29 0A0A096A7263787A20-     	 db 10, 10, 9, "jrcxz KS"
  2810 00001E32 4B53               
  2811 00001E34 E8(00000000)            	call LblUse
  2812 00001E39 E8(00000000)            	call pOut
  2813 00001E3E 190A096F722072496E-     	 db 25, 10, 9, "or rInEndFlg, rInEndFlg"
  2813 00001E47 456E64466C672C2072-
  2813 00001E50 496E456E64466C67   
  2814 00001E58 E8(00000000)            	call pOut
  2815 00001E5D 080A096A6E7A204B53      	 db 8, 10, 9, "jnz KS"
  2816 00001E66 E8(00000000)            	call LblUse
  2817 00001E6B E8(00000000)            	call pOut
  2818 00001E70 0B0A096A6D70204B53-     	 db 11, 10, 9, "jmp KSRep"
  2818 00001E79 526570             
  2819 00001E7C E8(00000000)            	call LblUse
  2820 00001E81 E8(00000000)            	call pOut
  2821 00001E86 030A4B53                	 db 3, 10, "KS"
  2822 00001E8A E8(00000000)            	call LblUse
  2823 00001E8F E8(00000000)            	call pOut
  2824 00001E94 013A                    	 db 1, ":"
  2825 00001E96 E8(00000000)            	call pOut
  2826 00001E9B 100A09786F72207250-     	 db 16, 10, 9, "xor rPOk, rPOk"
  2826 00001EA4 4F6B2C2072504F6B   
  2827 00001EAC E8(00000000)            	call pOut
  2828 00001EB1 160A09636D70207249-     	 db 22, 10, 9, "cmp rInPnt, [rsp+56]"
  2828 00001EBA 6E506E742C205B7273-
  2828 00001EC3 702B35365D         
  2829 00001EC8 E8(00000000)            	call pOut
  2830 00001ECD 0A0A096A7A204B5345-     	 db 10, 10, 9, "jz KSEnd"
  2830 00001ED6 6E64               
  2831 00001ED8 E8(00000000)            	call LblUse
  2832 00001EDD E8(00000000)            	call pOut
  2833 00001EE2 0A0A09696E63207250-     	 db 10, 10, 9, "inc rPOk"
  2833 00001EEB 4F6B               
  2834 00001EED E8(00000000)            	call pOut
  2835 00001EF2 060A4B53456E64          	 db 6, 10, "KSEnd"
  2836 00001EF9 E8(00000000)            	call LblCls
  2837 00001EFE E8(00000000)            	call pOut
  2838 00001F03 013A                    	 db 1, ":"
  2839 00001F05 E8(00000000)            	call pOut
  2840 00001F0A 0D0A09616464207273-     	 db 13, 10, 9, "add rsp, 64"
  2840 00001F13 702C203634         
  2841 00001F18 E8(00000000)            	call pOut
  2842 00001F1D 0C0A0963616C6C2063-     	 db 12, 10, 9, "call cDrop"
  2842 00001F26 44726F70           
  2843                                  SDEnd0193:
  2844 00001F2A E8(00000000)            	call cDrop
  2845 00001F2F C3                      	ret
  2846                                  
  2847                                  ;KleeneSequence= pS, '{',							<.	call pOut.>
  2848                                  ;										<.	 db 12, 10, 9, "call cPush".>
  2849                                  ;										<.	call pOut.>
  2850                                  ;										<.	 db 12, 10, 9, "call cPush".>
  2851                                  ;										<.	call pOut.>
  2852                                  ;										<.	 db 6, 10, "KSRep".>
  2853                                  ;										<.	call LblNew.>
  2854                                  ;										<.	call pOut.>
  2855                                  ;										<.	 db 1, ":".>
  2856                                  ;										<.	call pOut.>
  2857                                  ;										<.	 db 12, 10, 9, "call cPush".>,
  2858                                  ;			DefinitionsList, pS, '}*',				<.	call pOut.>
  2859                                  ;										<.	 db 12, 10, 9, "call cDrop".>
  2860                                  ;										<.	call pOut.>
  2861                                  ;										<.	 db 10, 10, 9, "jrcxz KS".>
  2862                                  ;										<.	call LblUse.>
  2863                                  ;										<.	call pOut.>
  2864                                  ;										<.	 db 25, 10, 9, "or rInEndFlg, rInEndFlg".>
  2865                                  ;										<.	call pOut.>
  2866                                  ;										<.	 db 8, 10, 9, "jnz KS".>
  2867                                  ;										<.	call LblUse.>
  2868                                  ;										
  2869                                  ;										<.	call pOut.>
  2870                                  ;										<.	 db 11, 10, 9, "jmp KSRep".>
  2871                                  ;										<.	call LblUse.>
  2872                                  ;										
  2873                                  ;										<.	call pOut.>
  2874                                  ;										<.	 db 3, 10, "KS".>
  2875                                  ;										<.	call LblUse.>
  2876                                  ;										<.	call pOut.>
  2877                                  ;										<.	 db 1, ":".>
  2878                                  ;										<.	call pOut.>
  2879                                  ;										<.	 db 16, 10, 9, "xor rPOk, rPOk".>
  2880                                  ;										<.	call pOut.>
  2881                                  ;										<.	 db 22, 10, 9, "cmp rInPnt, [rsp+56]".>
  2882                                  ;										<.	call pOut.>
  2883                                  ;										<.	 db 10, 10, 9, "jz KSEnd".>
  2884                                  ;										<.	call LblUse.>
  2885                                  ;										<.	call pOut.>
  2886                                  ;										<.	 db 10, 10, 9, "inc rPOk".>
  2887                                  ;										<.	call pOut.>
  2888                                  ;										<.	 db 6, 10, "KSEnd".>
  2889                                  ;										<.	call LblCls.>
  2890                                  ;										<.	call pOut.>
  2891                                  ;										<.	 db 1, ":".>
  2892                                  ;										
  2893                                  ;										<.	call pOut.>
  2894                                  ;										<.	 db 13, 10, 9, "add rsp, 64".>
  2895                                  ;										<.	call pOut.>
  2896                                  ;										<.	 db 12, 10, 9, "call cDrop".> ;
  2897                                  ;										
  2898                                  
  2899                                  ;xxxxxxxxxxxxxxxxxxxxxxxxxxxxxxxxxxxxxxxxxxxxxxxxxxxxxxxxxxxxxxxxxxxxxxxxxxxxxx
  2900                                  GroupedSequence:
  2901 00001F30 E8(00000000)            	call cPush
  2902 00001F35 E8ABE7FFFF              	call pS
  2903 00001F3A 4809C9                  	or rPOk, rPOk
  2904 00001F3D 7502                    	jnz SD0199
  2905 00001F3F EB5F                    	jmp SDEnd0199
  2906                                  SD0199:
  2907 00001F41 E8(00000000)            	call pIn
  2908 00001F46 0128                    	 db 0x0001, '('
  2909 00001F48 4809C9                  	or rPOk, rPOk
  2910 00001F4B 7502                    	jnz SD019A
  2911 00001F4D EB51                    	jmp SDEnd0199
  2912                                  SD019A:
  2913 00001F4F E8(00000000)            	call pOut
  2914 00001F54 0C0A0963616C6C2063-     	 db 12, 10, 9, "call cPush"
  2914 00001F5D 50757368           
  2915 00001F61 4809C9                  	or rPOk, rPOk
  2916 00001F64 7502                    	jnz SD019B
  2917 00001F66 EB38                    	jmp SDEnd0199
  2918                                  SD019B:
  2919 00001F68 E8EB060000              	call DefinitionsList
  2920 00001F6D 4809C9                  	or rPOk, rPOk
  2921 00001F70 7502                    	jnz SD019C
  2922 00001F72 EB2C                    	jmp SDEnd0199
  2923                                  SD019C:
  2924 00001F74 E86CE7FFFF              	call pS
  2925 00001F79 4809C9                  	or rPOk, rPOk
  2926 00001F7C 7502                    	jnz SD019D
  2927 00001F7E EB20                    	jmp SDEnd0199
  2928                                  SD019D:
  2929 00001F80 E8(00000000)            	call pIn
  2930 00001F85 0129                    	 db 0x0001, ')'
  2931 00001F87 4809C9                  	or rPOk, rPOk
  2932 00001F8A 7502                    	jnz SD019E
  2933 00001F8C EB12                    	jmp SDEnd0199
  2934                                  SD019E:
  2935 00001F8E E8(00000000)            	call pOut
  2936 00001F93 0C0A0963616C6C2063-     	 db 12, 10, 9, "call cDrop"
  2936 00001F9C 44726F70           
  2937                                  SDEnd0199:
  2938 00001FA0 E8(00000000)            	call cDrop
  2939 00001FA5 C3                      	ret
  2940                                  
  2941                                  ;GroupedSequence = pS, '(',							<.	call pOut.>
  2942                                  ;										<.	 db 12, 10, 9, "call cPush".>,
  2943                                  ;			   DefinitionsList, pS, ')'				,<.	call pOut.>
  2944                                  ;										<.	 db 12, 10, 9, "call cDrop".> ;
  2945                                  ;
  2946                                  
  2947                                  ;xxxxxxxxxxxxxxxxxxxxxxxxxxxxxxxxxxxxxxxxxxxxxxxxxxxxxxxxxxxxxxxxxxxxxxxxxxxxxx
  2948                                  Primary:
  2949 00001FA6 E8(00000000)            	call cPush
  2950 00001FAB E835E7FFFF              	call pS
  2951 00001FB0 4809C9                  	or rPOk, rPOk
  2952 00001FB3 7502                    	jnz SD019F
  2953 00001FB5 EB75                    	jmp SDEnd019F
  2954                                  SD019F:
  2955 00001FB7 E8(00000000)            	call cPush
  2956 00001FBC E8A0FBFFFF              	call OptionalSequence
  2957 00001FC1 E302                    	jrcxz DL01A0
  2958 00001FC3 EB62                    	jmp DLEnd01A0
  2959 00001FC5 48FFC1                  DL01A0:	inc rcx
  2960 00001FC8 E8(00000000)            	call cTop
  2961 00001FCD E893FDFFFF              	call KleeneSequence
  2962 00001FD2 E302                    	jrcxz DL01A1
  2963 00001FD4 EB51                    	jmp DLEnd01A0
  2964 00001FD6 48FFC1                  DL01A1:	inc rcx
  2965 00001FD9 E8(00000000)            	call cTop
  2966 00001FDE E81DFCFFFF              	call RepeatedSequence
  2967 00001FE3 E302                    	jrcxz DL01A2
  2968 00001FE5 EB40                    	jmp DLEnd01A0
  2969 00001FE7 48FFC1                  DL01A2:	inc rcx
  2970 00001FEA E8(00000000)            	call cTop
  2971 00001FEF E8E8E7FFFF              	call pTerminal
  2972 00001FF4 E302                    	jrcxz DL01A3
  2973 00001FF6 EB2F                    	jmp DLEnd01A0
  2974 00001FF8 48FFC1                  DL01A3:	inc rcx
  2975 00001FFB E8(00000000)            	call cTop
  2976 00002000 E82BFFFFFF              	call GroupedSequence
  2977 00002005 E302                    	jrcxz DL01A4
  2978 00002007 EB1E                    	jmp DLEnd01A0
  2979 00002009 48FFC1                  DL01A4:	inc rcx
  2980 0000200C E8(00000000)            	call cTop
  2981 00002011 E8A6F9FFFF              	call pFunctionList
  2982 00002016 E302                    	jrcxz DL01A5
  2983 00002018 EB0D                    	jmp DLEnd01A0
  2984 0000201A 48FFC1                  DL01A5:	inc rcx
  2985 0000201D E8(00000000)            	call cTop
  2986 00002022 E8C1E5FFFF              	call pCodeCond
  2987                                  DLEnd01A0:
  2988 00002027 E8(00000000)            	call cDrop
  2989                                  SDEnd019F:
  2990 0000202C E8(00000000)            	call cDrop
  2991 00002031 C3                      	ret
  2992                                  
  2993                                  ;Primary	= pS,	( OptionalSequence
  2994                                  ;		| KleeneSequence
  2995                                  ;		| RepeatedSequence
  2996                                  ;		| pTerminal
  2997                                  ;		| GroupedSequence
  2998                                  ;		| pFunctionList
  2999                                  ;		| pCodeCond);
  3000                                  ;		
  3001                                  
  3002                                  ;xxxxxxxxxxxxxxxxxxxxxxxxxxxxxxxxxxxxxxxxxxxxxxxxxxxxxxxxxxxxxxxxxxxxxxxxxxxxxx
  3003                                  Exception:
  3004 00002032 E8(00000000)            	call cPush
  3005 00002037 E8(00000000)            	call pOut
  3006 0000203C 0F0A096F722072504F-     	 db 15, 10, 9, "or rPOk, rPOk"
  3006 00002045 6B2C2072504F6B     
  3007 0000204C E8(00000000)            	call pOut
  3008 00002051 0B0A096A6E7A204578-     	 db 11, 10, 9, "jnz ExChk"
  3008 0000205A 43686B             
  3009 0000205D E8(00000000)            	call LblNew
  3010 00002062 E8(00000000)            	call pOut
  3011 00002067 0B0A096A6D70204578-     	 db 11, 10, 9, "jmp ExEnd"
  3011 00002070 456E64             
  3012 00002073 E8(00000000)            	call LblUse
  3013 00002078 E8(00000000)            	call pOut
  3014 0000207D 060A457843686B          	 db 6, 10, "ExChk"
  3015 00002084 E8(00000000)            	call LblUse
  3016 00002089 E8(00000000)            	call pOut
  3017 0000208E 013A                    	 db 1, ":"
  3018 00002090 E8(00000000)            	call pOut
  3019 00002095 0C0A0963616C6C2063-     	 db 12, 10, 9, "call cPush"
  3019 0000209E 50757368           
  3020 000020A2 E8(00000000)            	call pOut
  3021 000020A7 180A09737562207249-     	 db 24, 10, 9, "sub rInPnt, rLastInLen"
  3021 000020B0 6E506E742C20724C61-
  3021 000020B9 7374496E4C656E     
  3022 000020C0 4809C9                  	or rPOk, rPOk
  3023 000020C3 7502                    	jnz SD01A6
  3024 000020C5 EB3C                    	jmp SDEnd01A6
  3025                                  SD01A6:
  3026 000020C7 E809030000              	call Term
  3027 000020CC 4809C9                  	or rPOk, rPOk
  3028 000020CF 7502                    	jnz SD01A7
  3029 000020D1 EB30                    	jmp SDEnd01A6
  3030                                  SD01A7:
  3031 000020D3 E8(00000000)            	call pOut
  3032 000020D8 120A0963616C6C2063-     	 db 18, 10, 9, "call cDropExcept"
  3032 000020E1 44726F704578636570-
  3032 000020EA 74                 
  3033 000020EB E8(00000000)            	call pOut
  3034 000020F0 060A4578456E64          	 db 6, 10, "ExEnd"
  3035 000020F7 E8(00000000)            	call LblCls
  3036 000020FC E8(00000000)            	call pOut
  3037 00002101 013A                    	 db 1, ":"
  3038                                  SDEnd01A6:
  3039 00002103 E8(00000000)            	call cDrop
  3040 00002108 C3                      	ret
  3041                                  
  3042                                  ;Exception	=								<.	call pOut.>
  3043                                  ;										<.	 db 15, 10, 9, "or rPOk, rPOk".>
  3044                                  ;										<.	call pOut.>
  3045                                  ;										<.	 db 11, 10, 9, "jnz ExChk".>
  3046                                  ;										<.	call LblNew.>
  3047                                  ;										<.	call pOut.>
  3048                                  ;										<.	 db 11, 10, 9, "jmp ExEnd".>
  3049                                  ;										<.	call LblUse.>
  3050                                  ;										<.	call pOut.>
  3051                                  ;										<.	 db 6, 10, "ExChk".>
  3052                                  ;										<.	call LblUse.>
  3053                                  ;										<.	call pOut.>
  3054                                  ;										<.	 db 1, ":".>
  3055                                  ;										<.	call pOut.>
  3056                                  ;										<.	 db 12, 10, 9, "call cPush".>
  3057                                  ;										<.	call pOut.>
  3058                                  ;										<.	 db 24, 10, 9, "sub rInPnt, rLastInLen".>,
  3059                                  ;			Term,							<.	call pOut.>
  3060                                  ;										<.	 db 18, 10, 9, "call cDropExcept".>
  3061                                  ;										<.	call pOut.>
  3062                                  ;										<.	 db 6, 10, "ExEnd".>
  3063                                  ;										<.	call LblCls.>
  3064                                  ;										<.	call pOut.>
  3065                                  ;										<.	 db 1, ":".>	;
  3066                                  ;
  3067                                  
  3068                                  ;xxxxxxxxxxxxxxxxxxxxxxxxxxxxxxxxxxxxxxxxxxxxxxxxxxxxxxxxxxxxxxxxxxxxxxxxxxxxxx
  3069                                  Factor:
  3070 00002109 E8(00000000)            	call cPush
  3071 0000210E E893FEFFFF              	call Primary
  3072 00002113 4809C9                  	or rPOk, rPOk
  3073 00002116 7505                    	jnz SD01A8
  3074 00002118 E978010000              	jmp SDEnd01A8
  3075                                  SD01A8:
  3076 0000211D E8C3E5FFFF              	call pS
  3077 00002122 4809C9                  	or rPOk, rPOk
  3078 00002125 7505                    	jnz SD01A9
  3079 00002127 E969010000              	jmp SDEnd01A8
  3080                                  SD01A9:
  3081 0000212C E8(00000000)            	call cPush
  3082 00002131 E8(00000000)            	call cPush
  3083 00002136 E8(00000000)            	call pIn
  3084 0000213B 022A2A                  	 db 0x0002, '**'
  3085 0000213E 4809C9                  	or rPOk, rPOk
  3086 00002141 7502                    	jnz SD01AA
  3087 00002143 EB0F                    	jmp SDEnd01AA
  3088                                  SD01AA:
  3089 00002145 E8(00000000)            	call pOut
  3090 0000214A 090A09706F70207261-     	 db 9, 10, 9, "pop rax"
  3090 00002153 78                 
  3091                                  ;	call pOut
  3092                                  ;	 db 12, 10, 9, "call cPush"
  3093                                  SDEnd01AA:
  3094 00002154 E302                    	jrcxz DL01AB
  3095 00002156 EB2A                    	jmp DLEnd01AB
  3096 00002158 48FFC1                  DL01AB:	inc rcx
  3097 0000215B E8(00000000)            	call cTop
  3098 00002160 E8(00000000)            	call pIn
  3099 00002165 012A                    	 db 0x0001, '*'
  3100 00002167 4809C9                  	or rPOk, rPOk
  3101 0000216A 7502                    	jnz SD01AC
  3102 0000216C EB14                    	jmp SDEnd01AC
  3103                                  SD01AC:
  3104                                  ;	call pOut
  3105                                  ;	 db 12, 10, 9, "call cPush"
  3106 0000216E E8(00000000)            	call pOut
  3107 00002173 0E0A0963616C6C2044-     	 db 14, 10, 9, "call Dec2Bin"
  3107 0000217C 65633242696E       
  3108                                  SDEnd01AC:
  3109                                  DLEnd01AB:
  3110 00002182 E8(00000000)            	call cDrop
  3111 00002187 4809C9                  	or rPOk, rPOk
  3112 0000218A 7505                    	jnz SD01AD
  3113 0000218C E9F9000000              	jmp SDEnd01AD
  3114                                  SD01AD:
  3115 00002191 E8(00000000)            	call pOut
  3116 00002196 130A096D6F76207246-     	 db 19, 10, 9, "mov rFactCnt, rax"
  3116 0000219F 616374436E742C2072-
  3116 000021A8 6178               
  3117 000021AA E8(00000000)            	call pOut
  3118 000021AF 0D0A096F7220726178-     	 db 13, 10, 9, "or rax, rax"
  3118 000021B8 2C20726178         
  3119 000021BD E8(00000000)            	call pOut
  3120 000021C2 0C0A096A6E7A204661-     	 db 12, 10, 9, "jnz FacRep"
  3120 000021CB 63526570           
  3121 000021CF E8(00000000)            	call LblNew
  3122 000021D4 E8(00000000)            	call pOut
  3123 000021D9 0C0A096A6D70204661-     	 db 12, 10, 9, "jmp FacEnd"
  3123 000021E2 63456E64           
  3124 000021E6 E8(00000000)            	call LblUse
  3125 000021EB E8(00000000)            	call pOut
  3126 000021F0 070A466163526570        	 db 7, 10, "FacRep"
  3127 000021F8 E8(00000000)            	call LblUse
  3128 000021FD E8(00000000)            	call pOut
  3129 00002202 013A                    	 db 1, ":"
  3130 00002204 4809C9                  	or rPOk, rPOk
  3131 00002207 7502                    	jnz SD01AE
  3132 00002209 EB7F                    	jmp SDEnd01AD
  3133                                  SD01AE:
  3134 0000220B E896FDFFFF              	call Primary
  3135 00002210 4809C9                  	or rPOk, rPOk
  3136 00002213 7502                    	jnz SD01AF
  3137 00002215 EB73                    	jmp SDEnd01AD
  3138                                  SD01AF:
  3139 00002217 E8(00000000)            	call pOut
  3140 0000221C 0E0A09646563207246-     	 db 14, 10, 9, "dec rFactCnt"
  3140 00002225 616374436E74       
  3141 0000222B E8(00000000)            	call pOut
  3142 00002230 0E0A096A7263787A20-     	 db 14, 10, 9, "jrcxz FacEnd"
  3142 00002239 466163456E64       
  3143 0000223F E8(00000000)            	call LblUse
  3144 00002244 E8(00000000)            	call pOut
  3145 00002249 0B0A096A7A20466163-     	 db 11, 10, 9, "jz FacEnd"
  3145 00002252 456E64             
  3146 00002255 E8(00000000)            	call LblUse
  3147 0000225A E8(00000000)            	call pOut
  3148 0000225F 0C0A096A6D70204661-     	 db 12, 10, 9, "jmp FacRep"
  3148 00002268 63526570           
  3149 0000226C E8(00000000)            	call LblUse
  3150 00002271 E8(00000000)            	call pOut
  3151 00002276 070A466163456E64        	 db 7, 10, "FacEnd"
  3152 0000227E E8(00000000)            	call LblCls
  3153 00002283 E8(00000000)            	call pOut
  3154 00002288 013A                    	 db 1,":"
  3155                                  ;	call pOut
  3156                                  ;	 db 12, 10, 9, "call cDrop"
  3157                                  SDEnd01AD:
  3158 0000228A E8(00000000)            	call cDrop
  3159 0000228F 4831C9                  	xor rPOk, rPOk
  3160 00002292 48FFC1                  	inc rPOk
  3161                                  SDEnd01A8:
  3162 00002295 E305                    	jrcxz DL01B0
  3163 00002297 E933010000              	jmp DLEnd01B0
  3164 0000229C 48FFC1                  DL01B0:	inc rcx
  3165 0000229F E8(00000000)            	call cTop
  3166 000022A4 E83CE4FFFF              	call pS
  3167 000022A9 4809C9                  	or rPOk, rPOk
  3168 000022AC 7505                    	jnz SD01B1
  3169 000022AE E91C010000              	jmp SDEnd01B1
  3170                                  SD01B1:
  3171 000022B3 E895E4FFFF              	call pInteger
  3172 000022B8 4809C9                  	or rPOk, rPOk
  3173 000022BB 7505                    	jnz SD01B2
  3174 000022BD E90D010000              	jmp SDEnd01B1
  3175                                  SD01B2:
  3176 000022C2 E8(00000000)            	call pOut
  3177 000022C7 100A096D6F76207246-     	 db 16, 10, 9, "mov rFactCnt, "
  3177 000022D0 616374436E742C20   
  3178 000022D8 E8(00000000)            	call pOutLI
  3179 000022DD E8(00000000)            	call pOut
  3180 000022E2 170A096F7220724661-     	 db 23, 10, 9, "or rFactCnt, rFactCnt"
  3180 000022EB 6374436E742C207246-
  3180 000022F4 616374436E74       
  3181 000022FA E8(00000000)            	call pOut
  3182 000022FF 0B0A096A7A20466163-     	 db 11, 10, 9, "jz FacEnd"
  3182 00002308 456E64             
  3183 0000230B E8(00000000)            	call LblNew
  3184 00002310 E8(00000000)            	call pOut
  3185 00002315 070A466163526570        	 db 7, 10, "FacRep"
  3186 0000231D E8(00000000)            	call LblUse
  3187 00002322 E8(00000000)            	call pOut
  3188 00002327 013A                    	 db 1, ":"
  3189 00002329 4809C9                  	or rPOk, rPOk
  3190 0000232C 7505                    	jnz SD01B3
  3191 0000232E E99C000000              	jmp SDEnd01B1
  3192                                  SD01B3:
  3193 00002333 E8ADE3FFFF              	call pS
  3194 00002338 4809C9                  	or rPOk, rPOk
  3195 0000233B 7505                    	jnz SD01B4
  3196 0000233D E98D000000              	jmp SDEnd01B1
  3197                                  SD01B4:
  3198 00002342 E8(00000000)            	call pIn
  3199 00002347 012A                    	 db 0x0001, '*'
  3200 00002349 4809C9                  	or rPOk, rPOk
  3201 0000234C 7502                    	jnz SD01B5
  3202 0000234E EB7F                    	jmp SDEnd01B1
  3203                                  SD01B5:
  3204 00002350 E851FCFFFF              	call Primary
  3205 00002355 4809C9                  	or rPOk, rPOk
  3206 00002358 7502                    	jnz SD01B6
  3207 0000235A EB73                    	jmp SDEnd01B1
  3208                                  SD01B6:
  3209 0000235C E8(00000000)            	call pOut
  3210 00002361 0E0A09646563207246-     	 db 14, 10, 9, "dec rFactCnt"
  3210 0000236A 616374436E74       
  3211 00002370 E8(00000000)            	call pOut
  3212 00002375 0E0A096A7263787A20-     	 db 14, 10, 9, "jrcxz FacEnd"
  3212 0000237E 466163456E64       
  3213 00002384 E8(00000000)            	call LblUse
  3214 00002389 E8(00000000)            	call pOut
  3215 0000238E 0B0A096A7A20466163-     	 db 11, 10, 9, "jz FacEnd"
  3215 00002397 456E64             
  3216 0000239A E8(00000000)            	call LblUse
  3217 0000239F E8(00000000)            	call pOut
  3218 000023A4 0C0A096A6D70204661-     	 db 12, 10, 9, "jmp FacRep"
  3218 000023AD 63526570           
  3219 000023B1 E8(00000000)            	call LblUse
  3220 000023B6 E8(00000000)            	call pOut
  3221 000023BB 070A466163456E64        	 db 7, 10, "FacEnd"
  3222 000023C3 E8(00000000)            	call LblCls
  3223 000023C8 E8(00000000)            	call pOut
  3224 000023CD 013A                    	 db 1, ":"
  3225                                  SDEnd01B1:
  3226                                  DLEnd01B0:
  3227 000023CF E8(00000000)            	call cDrop
  3228 000023D4 C3                      	ret
  3229                                  
  3230                                  ;Factor	=  Primary, pS, [ ( '**'						,<.	call pOut.>
  3231                                  ;										<.	 db 9, 10, 9, "pop rax".>
  3232                                  ;										<.;	call pOut.>
  3233                                  ;										<.;	 db 12, 10, 9, "call cPush".>
  3234                                  ;				| '*'						,<.;	call pOut.>
  3235                                  ;										<.;	 db 12, 10, 9, "call cPush".>
  3236                                  ;			      							<.	call pOut.>
  3237                                  ;			      							<.	 db 14, 10, 9, "call Dec2Bin".>
  3238                                  ;			      	    )						,<.	call pOut.>
  3239                                  ;										<.	 db 19, 10, 9, "mov rFactCnt, rax".>	
  3240                                  ;										<.	call pOut.>
  3241                                  ;										<.	 db 13, 10, 9, "or rax, rax".>
  3242                                  ;										<.	call pOut.>
  3243                                  ;										<.	 db 12, 10, 9, "jnz FacRep".>
  3244                                  ;										<.	call LblNew.>
  3245                                  ;										<.	call pOut.>
  3246                                  ;										<.	 db 12, 10, 9, "jmp FacEnd".>
  3247                                  ;										<.	call LblUse.>			
  3248                                  ;
  3249                                  ;										<.	call pOut.>
  3250                                  ;										<.	 db 7, 10, "FacRep".>
  3251                                  ;										<.	call LblUse.>
  3252                                  ;										<.	call pOut.>
  3253                                  ;										<.	 db 1, ":".>
  3254                                  ;
  3255                                  ;			     , Primary						,<.	call pOut.>
  3256                                  ;										<.	 db 14, 10, 9, "dec rFactCnt".>
  3257                                  ;										<.	call pOut.>
  3258                                  ;										<.	 db 14, 10, 9, "jrcxz FacEnd".>
  3259                                  ;										<.	call LblUse.>
  3260                                  ;										<.	call pOut.>
  3261                                  ;										<.	 db 11, 10, 9, "jz FacEnd".>
  3262                                  ;										<.	call LblUse.>
  3263                                  ;										<.	call pOut.>
  3264                                  ;										<.	 db 12, 10, 9, "jmp FacRep".>
  3265                                  ;										<.	call LblUse.>
  3266                                  ;										<.	call pOut.>
  3267                                  ;										<.	 db 7, 10, "FacEnd".>
  3268                                  ;										<.	call LblCls.>
  3269                                  ;										<.	call pOut.>
  3270                                  ;										<.	 db 1,":".>
  3271                                  ;
  3272                                  ;										<.;	call pOut.>
  3273                                  ;										<.;	 db 12, 10, 9, "call cDrop".>
  3274                                  ;				      ]
  3275                                  ;	| pS, pInteger								,<.	call pOut.>
  3276                                  ;										<.	 db 16, 10, 9, "mov rFactCnt, ".>
  3277                                  ;										<.	call pOutLI.>
  3278                                  ;										<.	call pOut.>
  3279                                  ;										<.	 db 23, 10, 9, "or rFactCnt, rFactCnt".>
  3280                                  ;										<.	call pOut.>
  3281                                  ;										<.	 db 11, 10, 9, "jz FacEnd".>
  3282                                  ;										<.	call LblNew.>
  3283                                  ;
  3284                                  ;										<.	call pOut.>
  3285                                  ;										<.	 db 7, 10, "FacRep".>
  3286                                  ;										<.	call LblUse.>
  3287                                  ;										<.	call pOut.>
  3288                                  ;										<.	 db 1, ":".>
  3289                                  ;
  3290                                  ;						  , pS, '*', Primary		,<.	call pOut.>
  3291                                  ;										<.	 db 14, 10, 9, "dec rFactCnt".>
  3292                                  ;						     				<.	call pOut.>
  3293                                  ;										<.	 db 14, 10, 9, "jrcxz FacEnd".>
  3294                                  ;										<.	call LblUse.>
  3295                                  ;										<.	call pOut.>
  3296                                  ;										<.	 db 11, 10, 9, "jz FacEnd".>
  3297                                  ;										<.	call LblUse.>
  3298                                  ;										<.	call pOut.>
  3299                                  ;										<.	 db 12, 10, 9, "jmp FacRep".>
  3300                                  ;										<.	call LblUse.>	
  3301                                  ;										<.	call pOut.>
  3302                                  ;										<.	 db 7, 10, "FacEnd".>
  3303                                  ;										<.	call LblCls.>
  3304                                  ;										<.	call pOut.>
  3305                                  ;										<.	 db 1, ":".>	;
  3306                                  ;
  3307                                  
  3308                                  ;xxxxxxxxxxxxxxxxxxxxxxxxxxxxxxxxxxxxxxxxxxxxxxxxxxxxxxxxxxxxxxxxxxxxxxxxxxxxxx
  3309                                  Term:
  3310 000023D5 E8(00000000)            	call cPush
  3311 000023DA E82AFDFFFF              	call Factor
  3312 000023DF 4809C9                  	or rPOk, rPOk
  3313 000023E2 7502                    	jnz SD01B7
  3314 000023E4 EB2F                    	jmp SDEnd01B7
  3315                                  SD01B7:
  3316 000023E6 E8(00000000)            	call cPush
  3317 000023EB E8F5E2FFFF              	call pS
  3318 000023F0 4809C9                  	or rPOk, rPOk
  3319 000023F3 7502                    	jnz SD01B8
  3320 000023F5 EB13                    	jmp SDEnd01B8
  3321                                  SD01B8:
  3322 000023F7 E8(00000000)            	call pIn
  3323 000023FC 012D                    	 db 0x0001, '-'
  3324 000023FE 4809C9                  	or rPOk, rPOk
  3325 00002401 7502                    	jnz SD01B9
  3326 00002403 EB05                    	jmp SDEnd01B8
  3327                                  SD01B9:
  3328 00002405 E828FCFFFF              	call Exception
  3329                                  SDEnd01B8:
  3330 0000240A E8(00000000)            	call cDrop
  3331 0000240F 4831C9                  	xor rPOk, rPOk
  3332 00002412 48FFC1                  	inc rPOk
  3333                                  SDEnd01B7:
  3334 00002415 E8(00000000)            	call cDrop
  3335 0000241A C3                      	ret
  3336                                  
  3337                                  ;Term	= Factor, [pS, '-', Exception];
  3338                                  ;
  3339                                  
  3340                                  ;xxxxxxxxxxxxxxxxxxxxxxxxxxxxxxxxxxxxxxxxxxxxxxxxxxxxxxxxxxxxxxxxxxxxxxxxxxxxxx
  3341                                  SingleDefinition:
  3342 0000241B E8(00000000)            	call cPush
  3343 00002420 E8B0FFFFFF              	call Term
  3344 00002425 4809C9                  	or rPOk, rPOk
  3345 00002428 7505                    	jnz SD01BA
  3346 0000242A E9ED000000              	jmp SDEnd01BA
  3347                                  SD01BA:
  3348 0000242F E8(00000000)            	call cPush
  3349 00002434 E8(00000000)            	call LblPush
  3350 00002439 4809C9                  	or rPOk, rPOk
  3351 0000243C 7505                    	jnz SD01BB
  3352 0000243E E9CE000000              	jmp SDEnd01BB
  3353                                  SD01BB:
  3354 00002443 E8(00000000)            	call cPush
  3355 00002448 E8(00000000)            	call cPush
  3356                                  KSRep01BC:
  3357 0000244D E8(00000000)            	call cPush
  3358 00002452 E88EE2FFFF              	call pS
  3359 00002457 4809C9                  	or rPOk, rPOk
  3360 0000245A 7502                    	jnz SD01BD
  3361 0000245C EB6D                    	jmp SDEnd01BD
  3362                                  SD01BD:
  3363 0000245E E8(00000000)            	call pIn
  3364 00002463 012C                    	 db 0x0001, ','
  3365 00002465 4809C9                  	or rPOk, rPOk
  3366 00002468 7502                    	jnz SD01BE
  3367 0000246A EB5F                    	jmp SDEnd01BD
  3368                                  SD01BE:
  3369 0000246C E8(00000000)            	call pOut
  3370 00002471 0F0A096F722072504F-     	 db 15, 10, 9, "or rPOk, rPOk"
  3370 0000247A 6B2C2072504F6B     
  3371 00002481 E8(00000000)            	call pOut
  3372 00002486 080A096A6E7A205344      	 db 8, 10, 9, "jnz SD"
  3373 0000248F E8(00000000)            	call LblNew
  3374 00002494 E8(00000000)            	call pOut
  3375 00002499 0B0A096A6D70205344-     	 db 11, 10, 9, "jmp SDEnd"
  3375 000024A2 456E64             
  3376 000024A5 E8(00000000)            	call LblTop
  3377 000024AA E8(00000000)            	call pOut
  3378 000024AF 030A5344                	 db 3,10, "SD"
  3379 000024B3 E8(00000000)            	call LblUse
  3380 000024B8 E8(00000000)            	call pOut
  3381 000024BD 013A                    	 db 1, ":"
  3382 000024BF 4809C9                  	or rPOk, rPOk
  3383 000024C2 7502                    	jnz SD01BF
  3384 000024C4 EB05                    	jmp SDEnd01BD
  3385                                  SD01BF:
  3386 000024C6 E80AFFFFFF              	call Term
  3387                                  SDEnd01BD:
  3388 000024CB E8(00000000)            	call cDrop
  3389 000024D0 E30A                    	jrcxz KS01BC
  3390 000024D2 4D09F6                  	or rInEndFlg, rInEndFlg
  3391 000024D5 7505                    	jnz KS01BC
  3392 000024D7 E971FFFFFF              	jmp KSRep01BC
  3393                                  KS01BC:
  3394 000024DC 4831C9                  	xor rPOk, rPOk
  3395 000024DF 4C3B442438              	cmp rInPnt, [rsp+56]
  3396 000024E4 7403                    	jz KSEnd01BC
  3397 000024E6 48FFC1                  	inc rPOk
  3398                                  KSEnd01BC:
  3399 000024E9 4883C440                	add rsp, 64
  3400 000024ED E8(00000000)            	call cDrop
  3401 000024F2 4809C9                  	or rPOk, rPOk
  3402 000024F5 7502                    	jnz SD01C0
  3403 000024F7 EB18                    	jmp SDEnd01BB
  3404                                  SD01C0:
  3405 000024F9 E8(00000000)            	call pOut
  3406 000024FE 060A5344456E64          	 db 6,10, "SDEnd"
  3407 00002505 E8(00000000)            	call LblTop
  3408 0000250A E8(00000000)            	call pOut
  3409 0000250F 013A                    	 db 1, ":"
  3410                                  SDEnd01BB:
  3411 00002511 E8(00000000)            	call cDrop
  3412 00002516 4831C9                  	xor rPOk, rPOk
  3413 00002519 48FFC1                  	inc rPOk
  3414                                  SDEnd01BA:
  3415 0000251C E8(00000000)            	call cDrop
  3416 00002521 C3                      	ret
  3417                                  
  3418                                  ;SingleDefinition= Term	, [							<.	call LblPush.>
  3419                                  ;			    , {pS, ','						,<.	call pOut.>
  3420                                  ;										<.	 db 15, 10, 9, "or rPOk, rPOk".>
  3421                                  ;										<.	call pOut.>
  3422                                  ;										<.	 db 8, 10, 9, "jnz SD".>
  3423                                  ;										<.	call LblNew.>
  3424                                  ;										<.	call pOut.>
  3425                                  ;										<.	 db 11, 10, 9, "jmp SDEnd".>
  3426                                  ;										<.	call LblTop.>
  3427                                  ;										<.	call pOut.>
  3428                                  ;										<.	 db 3,10, "SD".>
  3429                                  ;										<.	call LblUse.>
  3430                                  ;										<.	call pOut.>
  3431                                  ;										<.	 db 1, ":".>
  3432                                  ;				        , Term }*				,<.	call pOut.>
  3433                                  ;										<.	 db 6,10, "SDEnd".>
  3434                                  ;										<.	call LblTop.>
  3435                                  ;										<.	call pOut.>
  3436                                  ;										<.	 db 1, ":".>
  3437                                  ;						   ];
  3438                                  ;
  3439                                  ;
  3440                                  ;				   
  3441                                  ;				   
  3442                                  ;				   	 
  3443                                  
  3444                                  ;xxxxxxxxxxxxxxxxxxxxxxxxxxxxxxxxxxxxxxxxxxxxxxxxxxxxxxxxxxxxxxxxxxxxxxxxxxxxxx
  3445                                  AndDefinition:
  3446 00002522 E8(00000000)            	call cPush
  3447 00002527 E8EFFEFFFF              	call SingleDefinition
  3448 0000252C 4809C9                  	or rPOk, rPOk
  3449 0000252F 7505                    	jnz SD01C1
  3450 00002531 E91C010000              	jmp SDEnd01C1
  3451                                  SD01C1:
  3452 00002536 E8(00000000)            	call cPush
  3453 0000253B E8(00000000)            	call LblPush
  3454 00002540 4809C9                  	or rPOk, rPOk
  3455 00002543 7505                    	jnz SD01C2
  3456 00002545 E9FD000000              	jmp SDEnd01C2
  3457                                  SD01C2:
  3458 0000254A E8(00000000)            	call cPush
  3459 0000254F E8(00000000)            	call cPush
  3460                                  KSRep01C3:
  3461 00002554 E8(00000000)            	call cPush
  3462 00002559 E887E1FFFF              	call pS
  3463 0000255E 4809C9                  	or rPOk, rPOk
  3464 00002561 7505                    	jnz SD01C4
  3465 00002563 E9A5000000              	jmp SDEnd01C4
  3466                                  SD01C4:
  3467 00002568 E8(00000000)            	call pIn
  3468 0000256D 012B                    	 db 0x0001, '+'
  3469 0000256F 4809C9                  	or rPOk, rPOk
  3470 00002572 7505                    	jnz SD01C5
  3471 00002574 E994000000              	jmp SDEnd01C4
  3472                                  SD01C5:
  3473 00002579 E8(00000000)            	call pOut
  3474 0000257E 0F0A096F722072504F-     	 db 15, 10, 9, "or rPOk, rPOk"
  3474 00002587 6B2C2072504F6B     
  3475 0000258E E8(00000000)            	call pOut
  3476 00002593 080A096A6E7A204144      	 db 8, 10, 9, "jnz AD"
  3477 0000259C E8(00000000)            	call LblNew
  3478 000025A1 E8(00000000)            	call pOut
  3479 000025A6 0B0A096A6D70204144-     	 db 11, 10, 9, "jmp ADEnd"
  3479 000025AF 456E64             
  3480 000025B2 E8(00000000)            	call LblTop
  3481 000025B7 E8(00000000)            	call pOut
  3482 000025BC 030A4144                	 db 3, 10, "AD"
  3483 000025C0 E8(00000000)            	call LblUse
  3484 000025C5 E8(00000000)            	call pOut
  3485 000025CA 013A                    	 db 1, ":"
  3486 000025CC E8(00000000)            	call pOut
  3487 000025D1 110A0963616C6C2063-     	 db 17, 10, 9, "call cAndProlog"
  3487 000025DA 416E6450726F6C6F67 
  3488 000025E3 4809C9                  	or rPOk, rPOk
  3489 000025E6 7502                    	jnz SD01C6
  3490 000025E8 EB23                    	jmp SDEnd01C4
  3491                                  SD01C6:
  3492 000025EA E82CFEFFFF              	call SingleDefinition
  3493 000025EF 4809C9                  	or rPOk, rPOk
  3494 000025F2 7502                    	jnz SD01C7
  3495 000025F4 EB17                    	jmp SDEnd01C4
  3496                                  SD01C7:
  3497 000025F6 E8(00000000)            	call pOut
  3498 000025FB 110A0963616C6C2063-     	 db 17, 10, 9, "call cAndEpilog"
  3498 00002604 416E644570696C6F67 
  3499                                  SDEnd01C4:
  3500 0000260D E8(00000000)            	call cDrop
  3501 00002612 E30A                    	jrcxz KS01C3
  3502 00002614 4D09F6                  	or rInEndFlg, rInEndFlg
  3503 00002617 7505                    	jnz KS01C3
  3504 00002619 E936FFFFFF              	jmp KSRep01C3
  3505                                  KS01C3:
  3506 0000261E 4831C9                  	xor rPOk, rPOk
  3507 00002621 4C3B442438              	cmp rInPnt, [rsp+56]
  3508 00002626 7403                    	jz KSEnd01C3
  3509 00002628 48FFC1                  	inc rPOk
  3510                                  KSEnd01C3:
  3511 0000262B 4883C440                	add rsp, 64
  3512 0000262F E8(00000000)            	call cDrop
  3513 00002634 4809C9                  	or rPOk, rPOk
  3514 00002637 7502                    	jnz SD01C8
  3515 00002639 EB0C                    	jmp SDEnd01C2
  3516                                  SD01C8:
  3517 0000263B E8(00000000)            	call pOutLbl
  3518 00002640 060A4144456E64          	 db 6, 10, "ADEnd"
  3519                                  SDEnd01C2:
  3520 00002647 E8(00000000)            	call cDrop
  3521 0000264C 4831C9                  	xor rPOk, rPOk
  3522 0000264F 48FFC1                  	inc rPOk
  3523                                  SDEnd01C1:
  3524 00002652 E8(00000000)            	call cDrop
  3525 00002657 C3                      	ret
  3526                                  
  3527                                  ;AndDefinition	= SingleDefinition, [						<.	call LblPush.>
  3528                                  ;			              ,  {pS, '+'				,<.	call pOut.>
  3529                                  ;										<.	 db 15, 10, 9, "or rPOk, rPOk".>
  3530                                  ;										<.	call pOut.>
  3531                                  ;										<.	 db 8, 10, 9, "jnz AD".>
  3532                                  ;										<.	call LblNew.>
  3533                                  ;										<.	call pOut.>
  3534                                  ;										<.	 db 11, 10, 9, "jmp ADEnd".>
  3535                                  ;										<.	call LblTop.>
  3536                                  ;										
  3537                                  ;										<.	call pOut.>
  3538                                  ;										<.	 db 3, 10, "AD".>
  3539                                  ;										<.	call LblUse.>
  3540                                  ;										<.	call pOut.>
  3541                                  ;										<.	 db 1, ":".>
  3542                                  ;										
  3543                                  ;										<.	call pOut.>
  3544                                  ;										<.	 db 17, 10, 9, "call cAndProlog".>
  3545                                  ;					         , SingleDefinition		,<.	call pOut.>
  3546                                  ;										<.	 db 17, 10, 9, "call cAndEpilog".>
  3547                                  ;								     }*		,<.	call pOutLbl.>
  3548                                  ;										<.	 db 6, 10, "ADEnd".>
  3549                                  ;						    	                ];
  3550                                  ;
  3551                                  
  3552                                  ;xxxxxxxxxxxxxxxxxxxxxxxxxxxxxxxxxxxxxxxxxxxxxxxxxxxxxxxxxxxxxxxxxxxxxxxxxxxxxx
  3553                                  DefinitionsList:
  3554 00002658 E8(00000000)            	call cPush
  3555 0000265D E8C0FEFFFF              	call AndDefinition
  3556 00002662 4809C9                  	or rPOk, rPOk
  3557 00002665 7505                    	jnz SD01C9
  3558 00002667 E9E7000000              	jmp SDEnd01C9
  3559                                  SD01C9:
  3560 0000266C E8(00000000)            	call cPush
  3561 00002671 E8(00000000)            	call LblPush
  3562 00002676 4809C9                  	or rPOk, rPOk
  3563 00002679 7505                    	jnz SD01CA
  3564 0000267B E9C8000000              	jmp SDEnd01CA
  3565                                  SD01CA:
  3566 00002680 E8(00000000)            	call cPush
  3567 00002685 E8(00000000)            	call cPush
  3568                                  KSRep01CB:
  3569 0000268A E8(00000000)            	call cPush
  3570 0000268F E851E0FFFF              	call pS
  3571 00002694 4809C9                  	or rPOk, rPOk
  3572 00002697 7502                    	jnz SD01CC
  3573 00002699 EB73                    	jmp SDEnd01CC
  3574                                  SD01CC:
  3575 0000269B E8(00000000)            	call pIn
  3576 000026A0 017C                    	 db 0x0001, '|'
  3577 000026A2 4809C9                  	or rPOk, rPOk
  3578 000026A5 7502                    	jnz SD01CD
  3579 000026A7 EB65                    	jmp SDEnd01CC
  3580                                  SD01CD:
  3581 000026A9 E8(00000000)            	call pOut
  3582 000026AE 0A0A096A7263787A20-     	 db 10, 10, 9, "jrcxz DL"
  3582 000026B7 444C               
  3583 000026B9 E8(00000000)            	call LblNew
  3584 000026BE E8(00000000)            	call pOut
  3585 000026C3 0B0A096A6D7020444C-     	 db 11, 10, 9, "jmp DLEnd"
  3585 000026CC 456E64             
  3586 000026CF E8(00000000)            	call LblTop
  3587 000026D4 E8(00000000)            	call pOut
  3588 000026D9 030A444C                	 db 3, 10, "DL"
  3589 000026DD E8(00000000)            	call LblUse
  3590 000026E2 E8(00000000)            	call pOut
  3591 000026E7 093A09696E63207263-     	 db 9, ":", 9, "inc rcx"
  3591 000026F0 78                 
  3592 000026F1 E8(00000000)            	call pOut
  3593 000026F6 0B0A0963616C6C2063-     	 db 11, 10, 9, "call cTop"
  3593 000026FF 546F70             
  3594 00002702 4809C9                  	or rPOk, rPOk
  3595 00002705 7502                    	jnz SD01CE
  3596 00002707 EB05                    	jmp SDEnd01CC
  3597                                  SD01CE:
  3598 00002709 E814FEFFFF              	call AndDefinition
  3599                                  SDEnd01CC:
  3600 0000270E E8(00000000)            	call cDrop
  3601 00002713 E30A                    	jrcxz KS01CB
  3602 00002715 4D09F6                  	or rInEndFlg, rInEndFlg
  3603 00002718 7505                    	jnz KS01CB
  3604 0000271A E96BFFFFFF              	jmp KSRep01CB
  3605                                  KS01CB:
  3606 0000271F 4831C9                  	xor rPOk, rPOk
  3607 00002722 4C3B442438              	cmp rInPnt, [rsp+56]
  3608 00002727 7403                    	jz KSEnd01CB
  3609 00002729 48FFC1                  	inc rPOk
  3610                                  KSEnd01CB:
  3611 0000272C 4883C440                	add rsp, 64
  3612 00002730 E8(00000000)            	call cDrop
  3613 00002735 4809C9                  	or rPOk, rPOk
  3614 00002738 7502                    	jnz SD01CF
  3615 0000273A EB0C                    	jmp SDEnd01CA
  3616                                  SD01CF:
  3617 0000273C E8(00000000)            	call pOutLbl
  3618 00002741 060A444C456E64          	 db 6, 10, "DLEnd"
  3619                                  SDEnd01CA:
  3620 00002748 E8(00000000)            	call cDrop
  3621 0000274D 4831C9                  	xor rPOk, rPOk
  3622 00002750 48FFC1                  	inc rPOk
  3623                                  SDEnd01C9:
  3624 00002753 E8(00000000)            	call cDrop
  3625 00002758 C3                      	ret
  3626                                  
  3627                                  ;DefinitionsList = AndDefinition, [						<.	call LblPush.>
  3628                                  ;			           , { pS, '|'					,<.	call pOut.>
  3629                                  ;										<.	 db 10, 10, 9, "jrcxz DL".>
  3630                                  ;										<.	call LblNew.>
  3631                                  ;										<.	call pOut.>
  3632                                  ;										<.	 db 11, 10, 9, "jmp DLEnd".>
  3633                                  ;										<.	call LblTop.>
  3634                                  ;										<.	call pOut.>
  3635                                  ;										<.	 db 3, 10, "DL".>
  3636                                  ;										<.	call LblUse.>
  3637                                  ;										<.	call pOut.>
  3638                                  ;										<.	 db 9, ":", 9, "inc rcx".>
  3639                                  ;										<.	call pOut.>
  3640                                  ;										<.	 db 11, 10, 9, "call cTop".>
  3641                                  ;					         , AndDefinition }*		,<.	call pOutLbl.>
  3642                                  ;										<.	 db 6, 10, "DLEnd".>
  3643                                  ; 								    ];
  3644                                  ;
  3645                                  
  3646                                  ;xxxxxxxxxxxxxxxxxxxxxxxxxxxxxxxxxxxxxxxxxxxxxxxxxxxxxxxxxxxxxxxxxxxxxxxxxxxxxx
  3647                                  pRule:
  3648 00002759 E8(00000000)            	call cPush
  3649 0000275E E882DFFFFF              	call pS
  3650 00002763 4809C9                  	or rPOk, rPOk
  3651 00002766 7505                    	jnz SD01D0
  3652 00002768 E98C020000              	jmp SDEnd01D0
  3653                                  SD01D0:
  3654 0000276D E81AE0FFFF              	call pIdentifier
  3655 00002772 4809C9                  	or rPOk, rPOk
  3656 00002775 7505                    	jnz SD01D1
  3657 00002777 E97D020000              	jmp SDEnd01D0
  3658                                  SD01D1:
  3659 0000277C E8(00000000)            	call pOut
  3660 00002781 510A3B787878787878-     	 db 81, 10, ";xxxxxxxxxxxxxxxxxxxxxxxxxxxxxxxxxxxxxxxxxxxxxxxxxxxxxxxxxxxxxxxxxxxxxxxxxxxxxx",10
  3660 0000278A 787878787878787878-
  3660 00002793 787878787878787878-
  3660 0000279C 787878787878787878-
  3660 000027A5 787878787878787878-
  3660 000027AE 787878787878787878-
  3660 000027B7 787878787878787878-
  3660 000027C0 787878787878787878-
  3660 000027C9 787878787878787878-
  3660 000027D2 0A                 
  3661 000027D3 E8(00000000)            	call pOutLI
  3662 000027D8 E8(00000000)            	call pOut
  3663 000027DD 013A                    	 db 1, ":"
  3664 000027DF 4809C9                  	or rPOk, rPOk
  3665 000027E2 7505                    	jnz SD01D2
  3666 000027E4 E910020000              	jmp SDEnd01D0
  3667                                  SD01D2:
  3668 000027E9 E8F7DEFFFF              	call pS
  3669 000027EE 4809C9                  	or rPOk, rPOk
  3670 000027F1 7505                    	jnz SD01D3
  3671 000027F3 E901020000              	jmp SDEnd01D0
  3672                                  SD01D3:
  3673 000027F8 E8(00000000)            	call cPush
  3674 000027FD E8(00000000)            	call pIn
  3675 00002802 013D                    	 db 0x0001, '='
  3676 00002804 4809C9                  	or rPOk, rPOk
  3677 00002807 7502                    	jnz SD01D4
  3678 00002809 EB6D                    	jmp SDEnd01D4
  3679                                  SD01D4:
  3680 0000280B E8(00000000)            	call pOut
  3681 00002810 0C0A0963616C6C2063-     	 db 12, 10, 9, "call cPush"
  3681 00002819 50757368           
  3682 0000281D 4809C9                  	or rPOk, rPOk
  3683 00002820 7502                    	jnz SD01D5
  3684 00002822 EB54                    	jmp SDEnd01D4
  3685                                  SD01D5:
  3686 00002824 E8(00000000)            	call cPush
  3687 00002829 E82AFEFFFF              	call DefinitionsList
  3688 0000282E E8(00000000)            	call cDrop
  3689 00002833 4831C9                  	xor rPOk, rPOk
  3690 00002836 48FFC1                  	inc rPOk
  3691 00002839 4809C9                  	or rPOk, rPOk
  3692 0000283C 7502                    	jnz SD01D6
  3693 0000283E EB38                    	jmp SDEnd01D4
  3694                                  SD01D6:
  3695 00002840 E8A0DEFFFF              	call pS
  3696 00002845 4809C9                  	or rPOk, rPOk
  3697 00002848 7502                    	jnz SD01D7
  3698 0000284A EB2C                    	jmp SDEnd01D4
  3699                                  SD01D7:
  3700 0000284C E8(00000000)            	call pIn
  3701 00002851 013B                    	 db 0x0001, ';'
  3702 00002853 4809C9                  	or rPOk, rPOk
  3703 00002856 7502                    	jnz SD01D8
  3704 00002858 EB1E                    	jmp SDEnd01D4
  3705                                  SD01D8:
  3706 0000285A E8(00000000)            	call pOut
  3707 0000285F 0C0A0963616C6C2063-     	 db 12, 10, 9, "call cDrop"
  3707 00002868 44726F70           
  3708 0000286C E8(00000000)            	call pOut
  3709 00002871 060A097265740A          	 db 6, 10, 9, "ret", 10
  3710                                  SDEnd01D4:
  3711 00002878 E305                    	jrcxz DL01D9
  3712 0000287A E975010000              	jmp DLEnd01D9
  3713 0000287F 48FFC1                  DL01D9:	inc rcx
  3714 00002882 E8(00000000)            	call cTop
  3715 00002887 E8(00000000)            	call pIn
  3716 0000288C 022829                  	 db 0x0002, '()'
  3717 0000288F 4809C9                  	or rPOk, rPOk
  3718 00002892 7505                    	jnz SD01DA
  3719 00002894 E99E000000              	jmp SDEnd01DA
  3720                                  SD01DA:
  3721 00002899 E847DEFFFF              	call pS
  3722 0000289E 4809C9                  	or rPOk, rPOk
  3723 000028A1 7505                    	jnz SD01DB
  3724 000028A3 E98F000000              	jmp SDEnd01DA
  3725                                  SD01DB:
  3726 000028A8 E8(00000000)            	call pIn
  3727 000028AD 013D                    	 db 0x0001, '='
  3728 000028AF 4809C9                  	or rPOk, rPOk
  3729 000028B2 7505                    	jnz SD01DC
  3730 000028B4 E97E000000              	jmp SDEnd01DA
  3731                                  SD01DC:
  3732 000028B9 E8(00000000)            	call pOut
  3733 000028BE 140A0963616C6C2063-     	 db 20, 10, 9, "call cOpenTextGram"
  3733 000028C7 4F70656E5465787447-
  3733 000028D0 72616D             
  3734 000028D3 4809C9                  	or rPOk, rPOk
  3735 000028D6 7502                    	jnz SD01DD
  3736 000028D8 EB5D                    	jmp SDEnd01DA
  3737                                  SD01DD:
  3738 000028DA E8(00000000)            	call cPush
  3739 000028DF E874FDFFFF              	call DefinitionsList
  3740 000028E4 E8(00000000)            	call cDrop
  3741 000028E9 4831C9                  	xor rPOk, rPOk
  3742 000028EC 48FFC1                  	inc rPOk
  3743 000028EF 4809C9                  	or rPOk, rPOk
  3744 000028F2 7502                    	jnz SD01DE
  3745 000028F4 EB41                    	jmp SDEnd01DA
  3746                                  SD01DE:
  3747 000028F6 E8EADDFFFF              	call pS
  3748 000028FB 4809C9                  	or rPOk, rPOk
  3749 000028FE 7502                    	jnz SD01DF
  3750 00002900 EB35                    	jmp SDEnd01DA
  3751                                  SD01DF:
  3752 00002902 E8(00000000)            	call pIn
  3753 00002907 013B                    	 db 0x0001, ';'
  3754 00002909 4809C9                  	or rPOk, rPOk
  3755 0000290C 7502                    	jnz SD01E0
  3756 0000290E EB27                    	jmp SDEnd01DA
  3757                                  SD01E0:
  3758 00002910 E8(00000000)            	call pOut
  3759 00002915 150A0963616C6C2063-     	 db 21, 10, 9, "call cCloseTextGram"
  3759 0000291E 436C6F736554657874-
  3759 00002927 4772616D           
  3760 0000292B E8(00000000)            	call pOut
  3761 00002930 060A097265740A          	 db 6, 10, 9, "ret", 10
  3762                                  SDEnd01DA:
  3763 00002937 E305                    	jrcxz DL01E1
  3764 00002939 E9B6000000              	jmp DLEnd01D9
  3765 0000293E 48FFC1                  DL01E1:	inc rcx
  3766 00002941 E8(00000000)            	call cTop
  3767 00002946 E8(00000000)            	call pIn
  3768 0000294B 0528682C6829            	 db 0x0005, '(h,h)'
  3769 00002951 4809C9                  	or rPOk, rPOk
  3770 00002954 7505                    	jnz SD01E2
  3771 00002956 E999000000              	jmp SDEnd01E2
  3772                                  SD01E2:
  3773 0000295B E885DDFFFF              	call pS
  3774 00002960 4809C9                  	or rPOk, rPOk
  3775 00002963 7505                    	jnz SD01E3
  3776 00002965 E98A000000              	jmp SDEnd01E2
  3777                                  SD01E3:
  3778 0000296A E8(00000000)            	call pIn
  3779 0000296F 013D                    	 db 0x0001, '='
  3780 00002971 4809C9                  	or rPOk, rPOk
  3781 00002974 7502                    	jnz SD01E4
  3782 00002976 EB7C                    	jmp SDEnd01E2
  3783                                  SD01E4:
  3784 00002978 E8(00000000)            	call pOut
  3785 0000297D 130A0963616C6C2063-     	 db 19, 10, 9, "call cOpenH2HGram"
  3785 00002986 4F70656E4832484772-
  3785 0000298F 616D               
  3786 00002991 4809C9                  	or rPOk, rPOk
  3787 00002994 7502                    	jnz SD01E5
  3788 00002996 EB5C                    	jmp SDEnd01E2
  3789                                  SD01E5:
  3790 00002998 E8(00000000)            	call cPush
  3791 0000299D E8B6FCFFFF              	call DefinitionsList
  3792 000029A2 E8(00000000)            	call cDrop
  3793 000029A7 4831C9                  	xor rPOk, rPOk
  3794 000029AA 48FFC1                  	inc rPOk
  3795 000029AD 4809C9                  	or rPOk, rPOk
  3796 000029B0 7502                    	jnz SD01E6
  3797 000029B2 EB40                    	jmp SDEnd01E2
  3798                                  SD01E6:
  3799 000029B4 E82CDDFFFF              	call pS
  3800 000029B9 4809C9                  	or rPOk, rPOk
  3801 000029BC 7502                    	jnz SD01E7
  3802 000029BE EB34                    	jmp SDEnd01E2
  3803                                  SD01E7:
  3804 000029C0 E8(00000000)            	call pIn
  3805 000029C5 013B                    	 db 0x0001, ';'
  3806 000029C7 4809C9                  	or rPOk, rPOk
  3807 000029CA 7502                    	jnz SD01E8
  3808 000029CC EB26                    	jmp SDEnd01E2
  3809                                  SD01E8:
  3810 000029CE E8(00000000)            	call pOut
  3811 000029D3 140A0963616C6C2063-     	 db 20, 10, 9, "call cCloseH2HGram"
  3811 000029DC 436C6F736548324847-
  3811 000029E5 72616D             
  3812 000029E8 E8(00000000)            	call pOut
  3813 000029ED 060A097265740A          	 db 6, 10, 9, "ret", 10
  3814                                  SDEnd01E2:
  3815                                  DLEnd01D9:
  3816 000029F4 E8(00000000)            	call cDrop
  3817                                  SDEnd01D0:
  3818 000029F9 E8(00000000)            	call cDrop
  3819 000029FE C3                      	ret
  3820                                  
  3821                                  ;pRule		= pS, pIdentifier,						<.	call pOut.>
  3822                                  ;										<.	 db 81, 10, ";xxxxxxxxxxxxxxxxxxxxxxxxxxxxxxxxxxxxxxxxxxxxxxxxxxxxxxxxxxxxxxxxxxxxxxxxxxxxxx",10.>
  3823                                  ;										<.	call pOutLI.>
  3824                                  ;										<.	call pOut.>
  3825                                  ;										<.	 db 1, ":".>,
  3826                                  ;			 	  pS,('=',					<.	call pOut.>
  3827                                  ;										<.	 db 12, 10, 9, "call cPush".>,
  3828                                  ;					 [DefinitionsList], pS, ';',		<.	call pOut.>
  3829                                  ;										<.	 db 12, 10, 9, "call cDrop".>
  3830                                  ;										<.	call pOut.>
  3831                                  ;										<.	 db 6, 10, 9, "ret", 10.> 
  3832                                  ;				     |'()', pS, '=',				<.	call pOut.>
  3833                                  ;										<.	 db 20, 10, 9, "call cOpenTextGram".>,
  3834                                  ;					 [DefinitionsList], pS, ';',		<.	call pOut.>
  3835                                  ;										<.	 db 21, 10, 9, "call cCloseTextGram".>
  3836                                  ;										<.	call pOut.>
  3837                                  ;										<.	 db 6, 10, 9, "ret", 10.>
  3838                                  ;				     |'(h,h)', pS, '=',				<.	call pOut.>
  3839                                  ;										<.	 db 19, 10, 9, "call cOpenH2HGram".>,
  3840                                  ;					 [DefinitionsList], pS, ';',		<.	call pOut.>
  3841                                  ;										<.	 db 20, 10, 9, "call cCloseH2HGram".>
  3842                                  ;										<.	call pOut.>
  3843                                  ;										<.	 db 6, 10, 9, "ret", 10.>
  3844                                  ;				     );
  3845                                  ;
  3846                                  ;
  3847                                  
  3848                                  ;xxxxxxxxxxxxxxxxxxxxxxxxxxxxxxxxxxxxxxxxxxxxxxxxxxxxxxxxxxxxxxxxxxxxxxxxxxxxxx
  3849                                  Grammar:
  3850 000029FF E8(00000000)            	call cPush
  3851 00002A04 E8DCDCFFFF              	call pS
  3852 00002A09 4809C9                  	or rPOk, rPOk
  3853 00002A0C 7502                    	jnz SD01E9
  3854 00002A0E EB50                    	jmp SDEnd01E9
  3855                                  SD01E9:
  3856 00002A10 E8(00000000)            	call cPush
  3857                                  RSRep01EE:
  3858 00002A15 E8(00000000)            	call cPush
  3859 00002A1A 4C8945E0                	mov InPntOld, rInPnt
  3860 00002A1E 4809C9                  	or rPOk, rPOk
  3861 00002A21 7502                    	jnz SD01EF
  3862 00002A23 EB22                    	jmp SDEnd01EF
  3863                                  SD01EF:
  3864 00002A25 E82FFDFFFF              	call pRule
  3865 00002A2A 4809C9                  	or rPOk, rPOk
  3866 00002A2D 7502                    	jnz SD01F0
  3867 00002A2F EB16                    	jmp SDEnd01EF
  3868                                  SD01F0:
  3869 00002A31 E8AFDCFFFF              	call pS
  3870 00002A36 4809C9                  	or rPOk, rPOk
  3871 00002A39 7502                    	jnz SD01F1
  3872 00002A3B EB0A                    	jmp SDEnd01EF
  3873                                  SD01F1:
  3874 00002A3D E8(00000000)            	call OutSrcLin
  3875 00002A42 E8(00000000)            	call DspLstTrm
  3876                                  SDEnd01EF:
  3877 00002A47 E8(00000000)            	call cDrop
  3878 00002A4C E307                    	jrcxz RSEnd01EE
  3879 00002A4E 4D09F6                  	or rInEndFlg, rInEndFlg
  3880 00002A51 7502                    	jnz RSEnd01EE
  3881 00002A53 EBC0                    	jmp RSRep01EE
  3882                                  RSEnd01EE:
  3883 00002A55 4831C9                  	xor rPOk, rPOk
  3884 00002A58 48FFC1                  	inc rPOk
  3885 00002A5B E8(00000000)            	call cDrop
  3886                                  SDEnd01E9:
  3887 00002A60 E8(00000000)            	call cDrop
  3888 00002A65 C3                      	ret
  3889                                  
  3890                                  ;Grammar	= pS, {									<.	mov InPntOld, rInPnt.>
  3891                                  ;			, pRule, pS,						<.	call OutSrcLin.>
  3892                                  ;										<.	call DspLstTrm.>
  3893                                  ;				     } ;
  3894                                  ;
  3895                                  ;
